
/home/paulr/Projects/neo6502-firmware/testing/8bitdvi/app/build/sources/hello_dvi.elf:     file format elf32-littlearm

Sections:
Idx Name          Size      VMA       LMA       File off  Algn
  0 .boot2        00000100  10000000  10000000  00001000  2**0
                  CONTENTS, ALLOC, LOAD, READONLY, CODE
  1 .text         000039c0  10000100  10000100  00001100  2**3
                  CONTENTS, ALLOC, LOAD, READONLY, CODE
  2 .rodata       000001c8  10003ac0  10003ac0  00004ac0  2**2
                  CONTENTS, ALLOC, LOAD, READONLY, DATA
  3 .binary_info  00000024  10003c88  10003c88  00004c88  2**2
                  CONTENTS, ALLOC, LOAD, READONLY, DATA
  4 .ram_vector_table 000000c0  20000000  20000000  00008000  2**2
                  ALLOC
  5 .data         00001244  200000c0  10003cac  000050c0  2**4
                  CONTENTS, ALLOC, LOAD, READONLY, CODE
  6 .uninitialized_data 00000000  20001304  20001304  00007164  2**0
                  CONTENTS
  7 .scratch_x    00000164  20040000  10004ef0  00007000  2**2
                  CONTENTS, ALLOC, LOAD, READONLY, CODE
  8 .scratch_y    00000000  20041000  20041000  00007164  2**0
                  CONTENTS
  9 .bss          00013da8  20001308  20001308  00008000  2**3
                  ALLOC
 10 .heap         00000800  200150b0  200150b0  00007164  2**2
                  CONTENTS, READONLY
 11 .stack1_dummy 00000800  20040164  20040164  00007164  2**2
                  ALLOC
 12 .stack_dummy  00000800  20041000  20041000  00007980  2**5
                  CONTENTS, READONLY
 13 .ARM.attributes 00000028  00000000  00000000  00008180  2**0
                  CONTENTS, READONLY
 14 .comment      0000003c  00000000  00000000  000081a8  2**0
                  CONTENTS, READONLY
 15 .debug_line   00002d07  00000000  00000000  000081e4  2**0
                  CONTENTS, READONLY, DEBUGGING, OCTETS
 16 .debug_line_str 00000092  00000000  00000000  0000aeeb  2**0
                  CONTENTS, READONLY, DEBUGGING, OCTETS
 17 .debug_info   000071e9  00000000  00000000  0000af7d  2**0
                  CONTENTS, READONLY, DEBUGGING, OCTETS
 18 .debug_abbrev 000020d1  00000000  00000000  00012166  2**0
                  CONTENTS, READONLY, DEBUGGING, OCTETS
 19 .debug_aranges 00000310  00000000  00000000  00014238  2**3
                  CONTENTS, READONLY, DEBUGGING, OCTETS
 20 .debug_str    0000113d  00000000  00000000  00014548  2**0
                  CONTENTS, READONLY, DEBUGGING, OCTETS
 21 .debug_loclists 00001724  00000000  00000000  00015685  2**0
                  CONTENTS, READONLY, DEBUGGING, OCTETS
 22 .debug_rnglists 000002ab  00000000  00000000  00016da9  2**0
                  CONTENTS, READONLY, DEBUGGING, OCTETS
 23 .debug_frame  000004fc  00000000  00000000  00017054  2**2
                  CONTENTS, READONLY, DEBUGGING, OCTETS

/home/paulr/Projects/neo6502-firmware/testing/8bitdvi/app/build/sources/hello_dvi.elf:     file format elf32-littlearm


Disassembly of section .boot2:

10000000 <__boot2_start__>:
10000000:	4b32b500 	.word	0x4b32b500
10000004:	60582021 	.word	0x60582021
10000008:	21026898 	.word	0x21026898
1000000c:	60984388 	.word	0x60984388
10000010:	611860d8 	.word	0x611860d8
10000014:	4b2e6158 	.word	0x4b2e6158
10000018:	60992100 	.word	0x60992100
1000001c:	61592102 	.word	0x61592102
10000020:	22f02101 	.word	0x22f02101
10000024:	492b5099 	.word	0x492b5099
10000028:	21016019 	.word	0x21016019
1000002c:	20356099 	.word	0x20356099
10000030:	f844f000 	.word	0xf844f000
10000034:	42902202 	.word	0x42902202
10000038:	2106d014 	.word	0x2106d014
1000003c:	f0006619 	.word	0xf0006619
10000040:	6e19f834 	.word	0x6e19f834
10000044:	66192101 	.word	0x66192101
10000048:	66182000 	.word	0x66182000
1000004c:	f000661a 	.word	0xf000661a
10000050:	6e19f82c 	.word	0x6e19f82c
10000054:	6e196e19 	.word	0x6e196e19
10000058:	f0002005 	.word	0xf0002005
1000005c:	2101f82f 	.word	0x2101f82f
10000060:	d1f94208 	.word	0xd1f94208
10000064:	60992100 	.word	0x60992100
10000068:	6019491b 	.word	0x6019491b
1000006c:	60592100 	.word	0x60592100
10000070:	481b491a 	.word	0x481b491a
10000074:	21016001 	.word	0x21016001
10000078:	21eb6099 	.word	0x21eb6099
1000007c:	21a06619 	.word	0x21a06619
10000080:	f0006619 	.word	0xf0006619
10000084:	2100f812 	.word	0x2100f812
10000088:	49166099 	.word	0x49166099
1000008c:	60014814 	.word	0x60014814
10000090:	60992101 	.word	0x60992101
10000094:	2800bc01 	.word	0x2800bc01
10000098:	4700d000 	.word	0x4700d000
1000009c:	49134812 	.word	0x49134812
100000a0:	c8036008 	.word	0xc8036008
100000a4:	8808f380 	.word	0x8808f380
100000a8:	b5034708 	.word	0xb5034708
100000ac:	20046a99 	.word	0x20046a99
100000b0:	d0fb4201 	.word	0xd0fb4201
100000b4:	42012001 	.word	0x42012001
100000b8:	bd03d1f8 	.word	0xbd03d1f8
100000bc:	6618b502 	.word	0x6618b502
100000c0:	f7ff6618 	.word	0xf7ff6618
100000c4:	6e18fff2 	.word	0x6e18fff2
100000c8:	bd026e18 	.word	0xbd026e18
100000cc:	40020000 	.word	0x40020000
100000d0:	18000000 	.word	0x18000000
100000d4:	00070000 	.word	0x00070000
100000d8:	005f0300 	.word	0x005f0300
100000dc:	00002221 	.word	0x00002221
100000e0:	180000f4 	.word	0x180000f4
100000e4:	a0002022 	.word	0xa0002022
100000e8:	10000100 	.word	0x10000100
100000ec:	e000ed08 	.word	0xe000ed08
	...
100000fc:	7a4eb274 	.word	0x7a4eb274

Disassembly of section .text:

10000100 <__VECTOR_TABLE>:
10000100:	20042000 	.word	0x20042000
10000104:	100001f7 	.word	0x100001f7
10000108:	100001c3 	.word	0x100001c3
1000010c:	100001c5 	.word	0x100001c5
10000110:	100001c1 	.word	0x100001c1
10000114:	100001c1 	.word	0x100001c1
10000118:	100001c1 	.word	0x100001c1
1000011c:	100001c1 	.word	0x100001c1
10000120:	100001c1 	.word	0x100001c1
10000124:	100001c1 	.word	0x100001c1
10000128:	100001c1 	.word	0x100001c1
1000012c:	100001c7 	.word	0x100001c7
10000130:	100001c1 	.word	0x100001c1
10000134:	100001c1 	.word	0x100001c1
10000138:	100001c9 	.word	0x100001c9
1000013c:	100001cb 	.word	0x100001cb
10000140:	100001cd 	.word	0x100001cd
10000144:	100001cd 	.word	0x100001cd
10000148:	100001cd 	.word	0x100001cd
1000014c:	100001cd 	.word	0x100001cd
10000150:	100001cd 	.word	0x100001cd
10000154:	100001cd 	.word	0x100001cd
10000158:	100001cd 	.word	0x100001cd
1000015c:	100001cd 	.word	0x100001cd
10000160:	100001cd 	.word	0x100001cd
10000164:	100001cd 	.word	0x100001cd
10000168:	100001cd 	.word	0x100001cd
1000016c:	100001cd 	.word	0x100001cd
10000170:	100001cd 	.word	0x100001cd
10000174:	100001cd 	.word	0x100001cd
10000178:	100001cd 	.word	0x100001cd
1000017c:	100001cd 	.word	0x100001cd
10000180:	100001cd 	.word	0x100001cd
10000184:	100001cd 	.word	0x100001cd
10000188:	100001cd 	.word	0x100001cd
1000018c:	100001cd 	.word	0x100001cd
10000190:	100001cd 	.word	0x100001cd
10000194:	100001cd 	.word	0x100001cd
10000198:	100001cd 	.word	0x100001cd
1000019c:	100001cd 	.word	0x100001cd
100001a0:	100001cd 	.word	0x100001cd
100001a4:	100001cd 	.word	0x100001cd
100001a8:	100001cd 	.word	0x100001cd
100001ac:	100001cd 	.word	0x100001cd
100001b0:	100001cd 	.word	0x100001cd
100001b4:	100001cd 	.word	0x100001cd
100001b8:	100001cd 	.word	0x100001cd
100001bc:	100001cd 	.word	0x100001cd

100001c0 <isr_invalid>:
100001c0:	be00      	bkpt	0x0000

100001c2 <isr_nmi>:
100001c2:	be00      	bkpt	0x0000

100001c4 <isr_hardfault>:
100001c4:	be00      	bkpt	0x0000

100001c6 <isr_svcall>:
100001c6:	be00      	bkpt	0x0000

100001c8 <isr_pendsv>:
100001c8:	be00      	bkpt	0x0000

100001ca <isr_systick>:
100001ca:	be00      	bkpt	0x0000

100001cc <__unhandled_user_irq>:
100001cc:	f3ef 8005 	mrs	r0, IPSR
100001d0:	3810      	subs	r0, #16

100001d2 <unhandled_user_irq_num_in_r0>:
100001d2:	be00      	bkpt	0x0000

100001d4 <binary_info_header>:
100001d4:	7188ebf2 	.word	0x7188ebf2
100001d8:	10003c88 	.word	0x10003c88
100001dc:	10003cac 	.word	0x10003cac
100001e0:	10000234 	.word	0x10000234
100001e4:	e71aa390 	.word	0xe71aa390

100001e8 <_entry_point>:
100001e8:	2000      	movs	r0, #0
100001ea:	491f      	ldr	r1, [pc, #124]	@ (10000268 <hold_non_core0_in_bootrom+0xa>)
100001ec:	6008      	str	r0, [r1, #0]
100001ee:	c806      	ldmia	r0!, {r1, r2}
100001f0:	f381 8808 	msr	MSP, r1
100001f4:	4710      	bx	r2

100001f6 <_reset_handler>:
100001f6:	481d      	ldr	r0, [pc, #116]	@ (1000026c <hold_non_core0_in_bootrom+0xe>)
100001f8:	6800      	ldr	r0, [r0, #0]
100001fa:	2800      	cmp	r0, #0
100001fc:	d12f      	bne.n	1000025e <hold_non_core0_in_bootrom>
100001fe:	a40d      	add	r4, pc, #52	@ (adr r4, 10000234 <data_cpy_table>)
10000200:	cc0e      	ldmia	r4!, {r1, r2, r3}
10000202:	2900      	cmp	r1, #0
10000204:	d002      	beq.n	1000020c <_reset_handler+0x16>
10000206:	f000 f812 	bl	1000022e <data_cpy>
1000020a:	e7f9      	b.n	10000200 <_reset_handler+0xa>
1000020c:	4918      	ldr	r1, [pc, #96]	@ (10000270 <hold_non_core0_in_bootrom+0x12>)
1000020e:	4a19      	ldr	r2, [pc, #100]	@ (10000274 <hold_non_core0_in_bootrom+0x16>)
10000210:	2000      	movs	r0, #0
10000212:	e000      	b.n	10000216 <bss_fill_test>

10000214 <bss_fill_loop>:
10000214:	c101      	stmia	r1!, {r0}

10000216 <bss_fill_test>:
10000216:	4291      	cmp	r1, r2
10000218:	d1fc      	bne.n	10000214 <bss_fill_loop>

1000021a <platform_entry>:
1000021a:	4917      	ldr	r1, [pc, #92]	@ (10000278 <hold_non_core0_in_bootrom+0x1a>)
1000021c:	4788      	blx	r1
1000021e:	4917      	ldr	r1, [pc, #92]	@ (1000027c <hold_non_core0_in_bootrom+0x1e>)
10000220:	4788      	blx	r1
10000222:	4917      	ldr	r1, [pc, #92]	@ (10000280 <hold_non_core0_in_bootrom+0x22>)
10000224:	4788      	blx	r1
10000226:	be00      	bkpt	0x0000
10000228:	e7fd      	b.n	10000226 <platform_entry+0xc>

1000022a <data_cpy_loop>:
1000022a:	c901      	ldmia	r1!, {r0}
1000022c:	c201      	stmia	r2!, {r0}

1000022e <data_cpy>:
1000022e:	429a      	cmp	r2, r3
10000230:	d3fb      	bcc.n	1000022a <data_cpy_loop>
10000232:	4770      	bx	lr

10000234 <data_cpy_table>:
10000234:	10003cac 	.word	0x10003cac
10000238:	200000c0 	.word	0x200000c0
1000023c:	20001304 	.word	0x20001304
10000240:	10004ef0 	.word	0x10004ef0
10000244:	20040000 	.word	0x20040000
10000248:	20040164 	.word	0x20040164
1000024c:	10005054 	.word	0x10005054
10000250:	20041000 	.word	0x20041000
10000254:	20041000 	.word	0x20041000
10000258:	00000000 	.word	0x00000000
1000025c:	4770      	bx	lr

1000025e <hold_non_core0_in_bootrom>:
1000025e:	4809      	ldr	r0, [pc, #36]	@ (10000284 <hold_non_core0_in_bootrom+0x26>)
10000260:	f001 fc14 	bl	10001a8c <rom_func_lookup>
10000264:	4700      	bx	r0
10000266:	0000      	.short	0x0000
10000268:	e000ed08 	.word	0xe000ed08
1000026c:	d0000000 	.word	0xd0000000
10000270:	20001308 	.word	0x20001308
10000274:	200150b0 	.word	0x200150b0
10000278:	100018c9 	.word	0x100018c9
1000027c:	100002dd 	.word	0x100002dd
10000280:	100019ed 	.word	0x100019ed
10000284:	00005657 	.word	0x00005657

10000288 <__bi_50>:
10000288:	50520006 5360b3ab 10003b60              ..RP..`S`;..

10000294 <__bi_38>:
10000294:	50520006 02031c86 10003b70              ..RP....p;..

100002a0 <__bi_30>:
100002a0:	50520006 9da22254 10003b7c              ..RPT"..|;..

100002ac <__bi_22>:
100002ac:	50520005 68f465de 10005054              ..RP.e.hTP..

100002b8 <_init>:
100002b8:	b5f8      	push	{r3, r4, r5, r6, r7, lr}
100002ba:	46c0      	nop			@ (mov r8, r8)

100002bc <frame_dummy>:
100002bc:	4b04      	ldr	r3, [pc, #16]	@ (100002d0 <frame_dummy+0x14>)
100002be:	b510      	push	{r4, lr}
100002c0:	2b00      	cmp	r3, #0
100002c2:	d003      	beq.n	100002cc <frame_dummy+0x10>
100002c4:	4903      	ldr	r1, [pc, #12]	@ (100002d4 <frame_dummy+0x18>)
100002c6:	4804      	ldr	r0, [pc, #16]	@ (100002d8 <frame_dummy+0x1c>)
100002c8:	e000      	b.n	100002cc <frame_dummy+0x10>
100002ca:	bf00      	nop
100002cc:	bd10      	pop	{r4, pc}
100002ce:	46c0      	nop			@ (mov r8, r8)
100002d0:	00000000 	.word	0x00000000
100002d4:	20002068 	.word	0x20002068
100002d8:	10003ac0 	.word	0x10003ac0

100002dc <main>:
100002dc:	b510      	push	{r4, lr}
100002de:	f000 f803 	bl	100002e8 <startVideo>
100002e2:	2000      	movs	r0, #0
100002e4:	bd10      	pop	{r4, pc}
100002e6:	46c0      	nop			@ (mov r8, r8)

100002e8 <startVideo>:
100002e8:	b5f0      	push	{r4, r5, r6, r7, lr}
100002ea:	46d6      	mov	lr, sl
100002ec:	464f      	mov	r7, r9
100002ee:	4646      	mov	r6, r8
100002f0:	b5c0      	push	{r6, r7, lr}
100002f2:	200d      	movs	r0, #13
100002f4:	b084      	sub	sp, #16
100002f6:	f001 fabd 	bl	10001874 <vreg_set_voltage>
100002fa:	200a      	movs	r0, #10
100002fc:	f000 feac 	bl	10001058 <sleep_ms>
10000300:	4d45      	ldr	r5, [pc, #276]	@ (10000418 <startVideo+0x130>)
10000302:	ab03      	add	r3, sp, #12
10000304:	6aac      	ldr	r4, [r5, #40]	@ 0x28
10000306:	aa02      	add	r2, sp, #8
10000308:	0020      	movs	r0, r4
1000030a:	a901      	add	r1, sp, #4
1000030c:	f000 f8d6 	bl	100004bc <check_sys_clock_khz>
10000310:	2800      	cmp	r0, #0
10000312:	d103      	bne.n	1000031c <startVideo+0x34>
10000314:	0021      	movs	r1, r4
10000316:	4841      	ldr	r0, [pc, #260]	@ (1000041c <startVideo+0x134>)
10000318:	f001 fb6c 	bl	100019f4 <panic>
1000031c:	9a03      	ldr	r2, [sp, #12]
1000031e:	9902      	ldr	r1, [sp, #8]
10000320:	9801      	ldr	r0, [sp, #4]
10000322:	f000 f88f 	bl	10000444 <set_sys_clock_pll>
10000326:	4c3e      	ldr	r4, [pc, #248]	@ (10000420 <startVideo+0x138>)
10000328:	2100      	movs	r1, #0
1000032a:	0020      	movs	r0, r4
1000032c:	2224      	movs	r2, #36	@ 0x24
1000032e:	3040      	adds	r0, #64	@ 0x40
10000330:	6025      	str	r5, [r4, #0]
10000332:	f001 ff01 	bl	10002138 <__wrap_memset>
10000336:	2202      	movs	r2, #2
10000338:	4b3a      	ldr	r3, [pc, #232]	@ (10000424 <startVideo+0x13c>)
1000033a:	64a2      	str	r2, [r4, #72]	@ 0x48
1000033c:	63e3      	str	r3, [r4, #60]	@ 0x3c
1000033e:	2301      	movs	r3, #1
10000340:	320c      	adds	r2, #12
10000342:	64e2      	str	r2, [r4, #76]	@ 0x4c
10000344:	3204      	adds	r2, #4
10000346:	6522      	str	r2, [r4, #80]	@ 0x50
10000348:	3a02      	subs	r2, #2
1000034a:	6562      	str	r2, [r4, #84]	@ 0x54
1000034c:	3a04      	subs	r2, #4
1000034e:	65a2      	str	r2, [r4, #88]	@ 0x58
10000350:	3250      	adds	r2, #80	@ 0x50
10000352:	54a3      	strb	r3, [r4, r2]
10000354:	6463      	str	r3, [r4, #68]	@ 0x44
10000356:	4b34      	ldr	r3, [pc, #208]	@ (10000428 <startVideo+0x140>)
10000358:	2602      	movs	r6, #2
1000035a:	6663      	str	r3, [r4, #100]	@ 0x64
1000035c:	f000 f9d6 	bl	1000070c <next_striped_spin_lock_num>
10000360:	0005      	movs	r5, r0
10000362:	f000 f9d3 	bl	1000070c <next_striped_spin_lock_num>
10000366:	0029      	movs	r1, r5
10000368:	0002      	movs	r2, r0
1000036a:	0020      	movs	r0, r4
1000036c:	f002 f84a 	bl	10002404 <dvi_init>
10000370:	22fc      	movs	r2, #252	@ 0xfc
10000372:	00d2      	lsls	r2, r2, #3
10000374:	4690      	mov	r8, r2
10000376:	221f      	movs	r2, #31
10000378:	4f2c      	ldr	r7, [pc, #176]	@ (1000042c <startVideo+0x144>)
1000037a:	4694      	mov	ip, r2
1000037c:	32e1      	adds	r2, #225	@ 0xe1
1000037e:	0039      	movs	r1, r7
10000380:	2300      	movs	r3, #0
10000382:	2001      	movs	r0, #1
10000384:	2504      	movs	r5, #4
10000386:	4691      	mov	r9, r2
10000388:	0002      	movs	r2, r0
1000038a:	401a      	ands	r2, r3
1000038c:	4218      	tst	r0, r3
1000038e:	d001      	beq.n	10000394 <startVideo+0xac>
10000390:	22f8      	movs	r2, #248	@ 0xf8
10000392:	0212      	lsls	r2, r2, #8
10000394:	421e      	tst	r6, r3
10000396:	d001      	beq.n	1000039c <startVideo+0xb4>
10000398:	4644      	mov	r4, r8
1000039a:	4322      	orrs	r2, r4
1000039c:	421d      	tst	r5, r3
1000039e:	d001      	beq.n	100003a4 <startVideo+0xbc>
100003a0:	4664      	mov	r4, ip
100003a2:	4322      	orrs	r2, r4
100003a4:	3301      	adds	r3, #1
100003a6:	800a      	strh	r2, [r1, #0]
100003a8:	3102      	adds	r1, #2
100003aa:	454b      	cmp	r3, r9
100003ac:	d1ec      	bne.n	10000388 <startVideo+0xa0>
100003ae:	4b20      	ldr	r3, [pc, #128]	@ (10000430 <startVideo+0x148>)
100003b0:	2500      	movs	r5, #0
100003b2:	469a      	mov	sl, r3
100003b4:	4b1f      	ldr	r3, [pc, #124]	@ (10000434 <startVideo+0x14c>)
100003b6:	2400      	movs	r4, #0
100003b8:	4699      	mov	r9, r3
100003ba:	2307      	movs	r3, #7
100003bc:	4698      	mov	r8, r3
100003be:	333a      	adds	r3, #58	@ 0x3a
100003c0:	33ff      	adds	r3, #255	@ 0xff
100003c2:	469c      	mov	ip, r3
100003c4:	4e1c      	ldr	r6, [pc, #112]	@ (10000438 <startVideo+0x150>)
100003c6:	4643      	mov	r3, r8
100003c8:	4652      	mov	r2, sl
100003ca:	10e0      	asrs	r0, r4, #3
100003cc:	4003      	ands	r3, r0
100003ce:	005b      	lsls	r3, r3, #1
100003d0:	5afb      	ldrh	r3, [r7, r3]
100003d2:	0031      	movs	r1, r6
100003d4:	5353      	strh	r3, [r2, r5]
100003d6:	464a      	mov	r2, r9
100003d8:	5353      	strh	r3, [r2, r5]
100003da:	2200      	movs	r2, #0
100003dc:	b2c0      	uxtb	r0, r0
100003de:	10d3      	asrs	r3, r2, #3
100003e0:	011b      	lsls	r3, r3, #4
100003e2:	18c3      	adds	r3, r0, r3
100003e4:	700b      	strb	r3, [r1, #0]
100003e6:	3201      	adds	r2, #1
100003e8:	3141      	adds	r1, #65	@ 0x41
100003ea:	31ff      	adds	r1, #255	@ 0xff
100003ec:	2af0      	cmp	r2, #240	@ 0xf0
100003ee:	d1f6      	bne.n	100003de <startVideo+0xf6>
100003f0:	3401      	adds	r4, #1
100003f2:	3601      	adds	r6, #1
100003f4:	3502      	adds	r5, #2
100003f6:	4564      	cmp	r4, ip
100003f8:	d1e5      	bne.n	100003c6 <startVideo+0xde>
100003fa:	2200      	movs	r2, #0
100003fc:	4b0f      	ldr	r3, [pc, #60]	@ (1000043c <startVideo+0x154>)
100003fe:	601a      	str	r2, [r3, #0]
10000400:	f003 fb3e 	bl	10003a80 <___scanline_callback_veneer>
10000404:	480e      	ldr	r0, [pc, #56]	@ (10000440 <startVideo+0x158>)
10000406:	f001 ffd1 	bl	100023ac <multicore_launch_core1>
1000040a:	2000      	movs	r0, #0
1000040c:	b004      	add	sp, #16
1000040e:	bce0      	pop	{r5, r6, r7}
10000410:	46ba      	mov	sl, r7
10000412:	46b1      	mov	r9, r6
10000414:	46a8      	mov	r8, r5
10000416:	bdf0      	pop	{r4, r5, r6, r7, pc}
10000418:	20000bc8 	.word	0x20000bc8
1000041c:	10003ac0 	.word	0x10003ac0
10000420:	20001d9c 	.word	0x20001d9c
10000424:	50200000 	.word	0x50200000
10000428:	200000e1 	.word	0x200000e1
1000042c:	20002080 	.word	0x20002080
10000430:	20001728 	.word	0x20001728
10000434:	20001a28 	.word	0x20001a28
10000438:	20002290 	.word	0x20002290
1000043c:	20002064 	.word	0x20002064
10000440:	200000c1 	.word	0x200000c1

10000444 <set_sys_clock_pll>:
10000444:	b5f0      	push	{r4, r5, r6, r7, lr}
10000446:	b083      	sub	sp, #12
10000448:	0005      	movs	r5, r0
1000044a:	000e      	movs	r6, r1
1000044c:	0014      	movs	r4, r2
1000044e:	f000 f8c1 	bl	100005d4 <running_on_fpga>
10000452:	2800      	cmp	r0, #0
10000454:	d001      	beq.n	1000045a <set_sys_clock_pll+0x16>
10000456:	b003      	add	sp, #12
10000458:	bdf0      	pop	{r4, r5, r6, r7, pc}
1000045a:	4f15      	ldr	r7, [pc, #84]	@ (100004b0 <set_sys_clock_pll+0x6c>)
1000045c:	2201      	movs	r2, #1
1000045e:	003b      	movs	r3, r7
10000460:	2101      	movs	r1, #1
10000462:	9700      	str	r7, [sp, #0]
10000464:	3005      	adds	r0, #5
10000466:	f001 f92b 	bl	100016c0 <clock_configure>
1000046a:	0033      	movs	r3, r6
1000046c:	002a      	movs	r2, r5
1000046e:	9400      	str	r4, [sp, #0]
10000470:	2101      	movs	r1, #1
10000472:	4810      	ldr	r0, [pc, #64]	@ (100004b4 <set_sys_clock_pll+0x70>)
10000474:	f001 f9ac 	bl	100017d0 <pll_init>
10000478:	0021      	movs	r1, r4
1000047a:	0028      	movs	r0, r5
1000047c:	4371      	muls	r1, r6
1000047e:	f001 fb37 	bl	10001af0 <__wrap___aeabi_uidiv>
10000482:	0004      	movs	r4, r0
10000484:	4b0c      	ldr	r3, [pc, #48]	@ (100004b8 <set_sys_clock_pll+0x74>)
10000486:	2200      	movs	r2, #0
10000488:	9300      	str	r3, [sp, #0]
1000048a:	2102      	movs	r1, #2
1000048c:	2004      	movs	r0, #4
1000048e:	f001 f917 	bl	100016c0 <clock_configure>
10000492:	0023      	movs	r3, r4
10000494:	2200      	movs	r2, #0
10000496:	2101      	movs	r1, #1
10000498:	9400      	str	r4, [sp, #0]
1000049a:	2005      	movs	r0, #5
1000049c:	f001 f910 	bl	100016c0 <clock_configure>
100004a0:	003b      	movs	r3, r7
100004a2:	2202      	movs	r2, #2
100004a4:	2100      	movs	r1, #0
100004a6:	9700      	str	r7, [sp, #0]
100004a8:	2006      	movs	r0, #6
100004aa:	f001 f909 	bl	100016c0 <clock_configure>
100004ae:	e7d2      	b.n	10000456 <set_sys_clock_pll+0x12>
100004b0:	02dc6c00 	.word	0x02dc6c00
100004b4:	40028000 	.word	0x40028000
100004b8:	00b71b00 	.word	0x00b71b00

100004bc <check_sys_clock_khz>:
100004bc:	b5f0      	push	{r4, r5, r6, r7, lr}
100004be:	464e      	mov	r6, r9
100004c0:	4657      	mov	r7, sl
100004c2:	4645      	mov	r5, r8
100004c4:	4691      	mov	r9, r2
100004c6:	46de      	mov	lr, fp
100004c8:	4a28      	ldr	r2, [pc, #160]	@ (1000056c <check_sys_clock_khz+0xb0>)
100004ca:	468a      	mov	sl, r1
100004cc:	4928      	ldr	r1, [pc, #160]	@ (10000570 <check_sys_clock_khz+0xb4>)
100004ce:	b5e0      	push	{r5, r6, r7, lr}
100004d0:	001c      	movs	r4, r3
100004d2:	0006      	movs	r6, r0
100004d4:	23a0      	movs	r3, #160	@ 0xa0
100004d6:	0010      	movs	r0, r2
100004d8:	464a      	mov	r2, r9
100004da:	4688      	mov	r8, r1
100004dc:	b085      	sub	sp, #20
100004de:	005b      	lsls	r3, r3, #1
100004e0:	9201      	str	r2, [sp, #4]
100004e2:	9402      	str	r4, [sp, #8]
100004e4:	4540      	cmp	r0, r8
100004e6:	d907      	bls.n	100004f8 <check_sys_clock_khz+0x3c>
100004e8:	4a22      	ldr	r2, [pc, #136]	@ (10000574 <check_sys_clock_khz+0xb8>)
100004ea:	3b01      	subs	r3, #1
100004ec:	4694      	mov	ip, r2
100004ee:	4460      	add	r0, ip
100004f0:	2b0f      	cmp	r3, #15
100004f2:	d1f7      	bne.n	100004e4 <check_sys_clock_khz+0x28>
100004f4:	2000      	movs	r0, #0
100004f6:	e027      	b.n	10000548 <check_sys_clock_khz+0x8c>
100004f8:	4a1f      	ldr	r2, [pc, #124]	@ (10000578 <check_sys_clock_khz+0xbc>)
100004fa:	2407      	movs	r4, #7
100004fc:	4693      	mov	fp, r2
100004fe:	4483      	add	fp, r0
10000500:	46a1      	mov	r9, r4
10000502:	0034      	movs	r4, r6
10000504:	465e      	mov	r6, fp
10000506:	469b      	mov	fp, r3
10000508:	9003      	str	r0, [sp, #12]
1000050a:	464f      	mov	r7, r9
1000050c:	464d      	mov	r5, r9
1000050e:	437f      	muls	r7, r7
10000510:	e004      	b.n	1000051c <check_sys_clock_khz+0x60>
10000512:	464b      	mov	r3, r9
10000514:	3d01      	subs	r5, #1
10000516:	1aff      	subs	r7, r7, r3
10000518:	2d00      	cmp	r5, #0
1000051a:	d01c      	beq.n	10000556 <check_sys_clock_khz+0x9a>
1000051c:	0039      	movs	r1, r7
1000051e:	0030      	movs	r0, r6
10000520:	f001 fae6 	bl	10001af0 <__wrap___aeabi_uidiv>
10000524:	42a0      	cmp	r0, r4
10000526:	d1f4      	bne.n	10000512 <check_sys_clock_khz+0x56>
10000528:	2900      	cmp	r1, #0
1000052a:	d1f2      	bne.n	10000512 <check_sys_clock_khz+0x56>
1000052c:	465b      	mov	r3, fp
1000052e:	9a01      	ldr	r2, [sp, #4]
10000530:	46cb      	mov	fp, r9
10000532:	4691      	mov	r9, r2
10000534:	4a11      	ldr	r2, [pc, #68]	@ (1000057c <check_sys_clock_khz+0xc0>)
10000536:	2001      	movs	r0, #1
10000538:	4353      	muls	r3, r2
1000053a:	4652      	mov	r2, sl
1000053c:	6013      	str	r3, [r2, #0]
1000053e:	464b      	mov	r3, r9
10000540:	465a      	mov	r2, fp
10000542:	9c02      	ldr	r4, [sp, #8]
10000544:	601a      	str	r2, [r3, #0]
10000546:	6025      	str	r5, [r4, #0]
10000548:	b005      	add	sp, #20
1000054a:	bcf0      	pop	{r4, r5, r6, r7}
1000054c:	46bb      	mov	fp, r7
1000054e:	46b2      	mov	sl, r6
10000550:	46a9      	mov	r9, r5
10000552:	46a0      	mov	r8, r4
10000554:	bdf0      	pop	{r4, r5, r6, r7, pc}
10000556:	2301      	movs	r3, #1
10000558:	425b      	negs	r3, r3
1000055a:	469c      	mov	ip, r3
1000055c:	44e1      	add	r9, ip
1000055e:	464b      	mov	r3, r9
10000560:	2b00      	cmp	r3, #0
10000562:	d1d2      	bne.n	1000050a <check_sys_clock_khz+0x4e>
10000564:	465b      	mov	r3, fp
10000566:	0026      	movs	r6, r4
10000568:	9803      	ldr	r0, [sp, #12]
1000056a:	e7bd      	b.n	100004e8 <check_sys_clock_khz+0x2c>
1000056c:	002f2650 	.word	0x002f2650
10000570:	000cf850 	.word	0x000cf850
10000574:	ffffd120 	.word	0xffffd120
10000578:	000b71b0 	.word	0x000b71b0
1000057c:	00b71b00 	.word	0x00b71b00

10000580 <gpio_set_function>:
10000580:	4a09      	ldr	r2, [pc, #36]	@ (100005a8 <gpio_set_function+0x28>)
10000582:	b510      	push	{r4, lr}
10000584:	4694      	mov	ip, r2
10000586:	2440      	movs	r4, #64	@ 0x40
10000588:	0083      	lsls	r3, r0, #2
1000058a:	4463      	add	r3, ip
1000058c:	681a      	ldr	r2, [r3, #0]
1000058e:	00c0      	lsls	r0, r0, #3
10000590:	4062      	eors	r2, r4
10000592:	3480      	adds	r4, #128	@ 0x80
10000594:	4014      	ands	r4, r2
10000596:	2280      	movs	r2, #128	@ 0x80
10000598:	0152      	lsls	r2, r2, #5
1000059a:	4313      	orrs	r3, r2
1000059c:	601c      	str	r4, [r3, #0]
1000059e:	4b03      	ldr	r3, [pc, #12]	@ (100005ac <gpio_set_function+0x2c>)
100005a0:	469c      	mov	ip, r3
100005a2:	4460      	add	r0, ip
100005a4:	6041      	str	r1, [r0, #4]
100005a6:	bd10      	pop	{r4, pc}
100005a8:	4001c004 	.word	0x4001c004
100005ac:	40014000 	.word	0x40014000

100005b0 <gpio_set_outover>:
100005b0:	4b07      	ldr	r3, [pc, #28]	@ (100005d0 <gpio_set_outover+0x20>)
100005b2:	00c0      	lsls	r0, r0, #3
100005b4:	469c      	mov	ip, r3
100005b6:	4460      	add	r0, ip
100005b8:	6803      	ldr	r3, [r0, #0]
100005ba:	0209      	lsls	r1, r1, #8
100005bc:	4059      	eors	r1, r3
100005be:	23c0      	movs	r3, #192	@ 0xc0
100005c0:	009b      	lsls	r3, r3, #2
100005c2:	4019      	ands	r1, r3
100005c4:	2380      	movs	r3, #128	@ 0x80
100005c6:	015b      	lsls	r3, r3, #5
100005c8:	4303      	orrs	r3, r0
100005ca:	6019      	str	r1, [r3, #0]
100005cc:	4770      	bx	lr
100005ce:	46c0      	nop			@ (mov r8, r8)
100005d0:	40014004 	.word	0x40014004

100005d4 <running_on_fpga>:
100005d4:	4b02      	ldr	r3, [pc, #8]	@ (100005e0 <running_on_fpga+0xc>)
100005d6:	6818      	ldr	r0, [r3, #0]
100005d8:	0780      	lsls	r0, r0, #30
100005da:	0fc0      	lsrs	r0, r0, #31
100005dc:	4770      	bx	lr
100005de:	46c0      	nop			@ (mov r8, r8)
100005e0:	4006c000 	.word	0x4006c000

100005e4 <hw_claim_lock>:
100005e4:	f3ef 8010 	mrs	r0, PRIMASK
100005e8:	b672      	cpsid	i
100005ea:	4a03      	ldr	r2, [pc, #12]	@ (100005f8 <hw_claim_lock+0x14>)
100005ec:	6813      	ldr	r3, [r2, #0]
100005ee:	2b00      	cmp	r3, #0
100005f0:	d0fc      	beq.n	100005ec <hw_claim_lock+0x8>
100005f2:	f3bf 8f5f 	dmb	sy
100005f6:	4770      	bx	lr
100005f8:	d000012c 	.word	0xd000012c

100005fc <hw_claim_unlock>:
100005fc:	f3bf 8f5f 	dmb	sy
10000600:	2200      	movs	r2, #0
10000602:	4b02      	ldr	r3, [pc, #8]	@ (1000060c <hw_claim_unlock+0x10>)
10000604:	601a      	str	r2, [r3, #0]
10000606:	f380 8810 	msr	PRIMASK, r0
1000060a:	4770      	bx	lr
1000060c:	d000012c 	.word	0xd000012c

10000610 <hw_claim_or_assert>:
10000610:	b570      	push	{r4, r5, r6, lr}
10000612:	f3ef 8c10 	mrs	ip, PRIMASK
10000616:	b672      	cpsid	i
10000618:	4d0d      	ldr	r5, [pc, #52]	@ (10000650 <hw_claim_or_assert+0x40>)
1000061a:	682b      	ldr	r3, [r5, #0]
1000061c:	2b00      	cmp	r3, #0
1000061e:	d0fc      	beq.n	1000061a <hw_claim_or_assert+0xa>
10000620:	f3bf 8f5f 	dmb	sy
10000624:	2407      	movs	r4, #7
10000626:	08cb      	lsrs	r3, r1, #3
10000628:	18c6      	adds	r6, r0, r3
1000062a:	5cc0      	ldrb	r0, [r0, r3]
1000062c:	2301      	movs	r3, #1
1000062e:	400c      	ands	r4, r1
10000630:	40a3      	lsls	r3, r4
10000632:	001c      	movs	r4, r3
10000634:	4004      	ands	r4, r0
10000636:	4203      	tst	r3, r0
10000638:	d107      	bne.n	1000064a <hw_claim_or_assert+0x3a>
1000063a:	4318      	orrs	r0, r3
1000063c:	7030      	strb	r0, [r6, #0]
1000063e:	f3bf 8f5f 	dmb	sy
10000642:	602c      	str	r4, [r5, #0]
10000644:	f38c 8810 	msr	PRIMASK, ip
10000648:	bd70      	pop	{r4, r5, r6, pc}
1000064a:	0010      	movs	r0, r2
1000064c:	f001 f9d2 	bl	100019f4 <panic>
10000650:	d000012c 	.word	0xd000012c

10000654 <hw_claim_unused_from_range>:
10000654:	b5f8      	push	{r3, r4, r5, r6, r7, lr}
10000656:	4647      	mov	r7, r8
10000658:	46ce      	mov	lr, r9
1000065a:	4688      	mov	r8, r1
1000065c:	b580      	push	{r7, lr}
1000065e:	f3ef 8c10 	mrs	ip, PRIMASK
10000662:	b672      	cpsid	i
10000664:	4d21      	ldr	r5, [pc, #132]	@ (100006ec <hw_claim_unused_from_range+0x98>)
10000666:	682c      	ldr	r4, [r5, #0]
10000668:	2c00      	cmp	r4, #0
1000066a:	d0fc      	beq.n	10000666 <hw_claim_unused_from_range+0x12>
1000066c:	f3bf 8f5f 	dmb	sy
10000670:	429a      	cmp	r2, r3
10000672:	d82c      	bhi.n	100006ce <hw_claim_unused_from_range+0x7a>
10000674:	08d4      	lsrs	r4, r2, #3
10000676:	2707      	movs	r7, #7
10000678:	5d05      	ldrb	r5, [r0, r4]
1000067a:	1906      	adds	r6, r0, r4
1000067c:	2401      	movs	r4, #1
1000067e:	4017      	ands	r7, r2
10000680:	40bc      	lsls	r4, r7
10000682:	422c      	tst	r4, r5
10000684:	d01f      	beq.n	100006c6 <hw_claim_unused_from_range+0x72>
10000686:	2107      	movs	r1, #7
10000688:	2701      	movs	r7, #1
1000068a:	4689      	mov	r9, r1
1000068c:	e009      	b.n	100006a2 <hw_claim_unused_from_range+0x4e>
1000068e:	08d4      	lsrs	r4, r2, #3
10000690:	5d05      	ldrb	r5, [r0, r4]
10000692:	1906      	adds	r6, r0, r4
10000694:	464c      	mov	r4, r9
10000696:	0039      	movs	r1, r7
10000698:	4014      	ands	r4, r2
1000069a:	40a1      	lsls	r1, r4
1000069c:	000c      	movs	r4, r1
1000069e:	4229      	tst	r1, r5
100006a0:	d011      	beq.n	100006c6 <hw_claim_unused_from_range+0x72>
100006a2:	3201      	adds	r2, #1
100006a4:	4293      	cmp	r3, r2
100006a6:	d2f2      	bcs.n	1000068e <hw_claim_unused_from_range+0x3a>
100006a8:	2001      	movs	r0, #1
100006aa:	4240      	negs	r0, r0
100006ac:	f3bf 8f5f 	dmb	sy
100006b0:	2200      	movs	r2, #0
100006b2:	4b0e      	ldr	r3, [pc, #56]	@ (100006ec <hw_claim_unused_from_range+0x98>)
100006b4:	601a      	str	r2, [r3, #0]
100006b6:	f38c 8810 	msr	PRIMASK, ip
100006ba:	2800      	cmp	r0, #0
100006bc:	db0f      	blt.n	100006de <hw_claim_unused_from_range+0x8a>
100006be:	bcc0      	pop	{r6, r7}
100006c0:	46b9      	mov	r9, r7
100006c2:	46b0      	mov	r8, r6
100006c4:	bdf8      	pop	{r3, r4, r5, r6, r7, pc}
100006c6:	4325      	orrs	r5, r4
100006c8:	0010      	movs	r0, r2
100006ca:	7035      	strb	r5, [r6, #0]
100006cc:	e7ee      	b.n	100006ac <hw_claim_unused_from_range+0x58>
100006ce:	f3bf 8f5f 	dmb	sy
100006d2:	2300      	movs	r3, #0
100006d4:	602b      	str	r3, [r5, #0]
100006d6:	f38c 8810 	msr	PRIMASK, ip
100006da:	2001      	movs	r0, #1
100006dc:	4240      	negs	r0, r0
100006de:	4643      	mov	r3, r8
100006e0:	2b00      	cmp	r3, #0
100006e2:	d0ec      	beq.n	100006be <hw_claim_unused_from_range+0x6a>
100006e4:	9808      	ldr	r0, [sp, #32]
100006e6:	f001 f985 	bl	100019f4 <panic>
100006ea:	46c0      	nop			@ (mov r8, r8)
100006ec:	d000012c 	.word	0xd000012c

100006f0 <spin_locks_reset>:
100006f0:	2100      	movs	r1, #0
100006f2:	4b04      	ldr	r3, [pc, #16]	@ (10000704 <spin_locks_reset+0x14>)
100006f4:	4a04      	ldr	r2, [pc, #16]	@ (10000708 <spin_locks_reset+0x18>)
100006f6:	f3bf 8f5f 	dmb	sy
100006fa:	c302      	stmia	r3!, {r1}
100006fc:	4293      	cmp	r3, r2
100006fe:	d1fa      	bne.n	100006f6 <spin_locks_reset+0x6>
10000700:	4770      	bx	lr
10000702:	46c0      	nop			@ (mov r8, r8)
10000704:	d0000100 	.word	0xd0000100
10000708:	d0000180 	.word	0xd0000180

1000070c <next_striped_spin_lock_num>:
1000070c:	4a04      	ldr	r2, [pc, #16]	@ (10000720 <next_striped_spin_lock_num+0x14>)
1000070e:	7810      	ldrb	r0, [r2, #0]
10000710:	1c43      	adds	r3, r0, #1
10000712:	b2db      	uxtb	r3, r3
10000714:	2b17      	cmp	r3, #23
10000716:	d900      	bls.n	1000071a <next_striped_spin_lock_num+0xe>
10000718:	2310      	movs	r3, #16
1000071a:	7013      	strb	r3, [r2, #0]
1000071c:	4770      	bx	lr
1000071e:	46c0      	nop			@ (mov r8, r8)
10000720:	20000d08 	.word	0x20000d08

10000724 <irq_set_enabled>:
10000724:	2301      	movs	r3, #1
10000726:	4083      	lsls	r3, r0
10000728:	2900      	cmp	r1, #0
1000072a:	d004      	beq.n	10000736 <irq_set_enabled+0x12>
1000072c:	4a03      	ldr	r2, [pc, #12]	@ (1000073c <irq_set_enabled+0x18>)
1000072e:	6013      	str	r3, [r2, #0]
10000730:	4a03      	ldr	r2, [pc, #12]	@ (10000740 <irq_set_enabled+0x1c>)
10000732:	6013      	str	r3, [r2, #0]
10000734:	4770      	bx	lr
10000736:	4a03      	ldr	r2, [pc, #12]	@ (10000744 <irq_set_enabled+0x20>)
10000738:	6013      	str	r3, [r2, #0]
1000073a:	e7fb      	b.n	10000734 <irq_set_enabled+0x10>
1000073c:	e000e280 	.word	0xe000e280
10000740:	e000e100 	.word	0xe000e100
10000744:	e000e180 	.word	0xe000e180

10000748 <irq_is_enabled>:
10000748:	2201      	movs	r2, #1
1000074a:	4082      	lsls	r2, r0
1000074c:	4b03      	ldr	r3, [pc, #12]	@ (1000075c <irq_is_enabled+0x14>)
1000074e:	681b      	ldr	r3, [r3, #0]
10000750:	4013      	ands	r3, r2
10000752:	1e5a      	subs	r2, r3, #1
10000754:	4193      	sbcs	r3, r2
10000756:	b2d8      	uxtb	r0, r3
10000758:	4770      	bx	lr
1000075a:	46c0      	nop			@ (mov r8, r8)
1000075c:	e000e100 	.word	0xe000e100

10000760 <irq_get_vtable_handler>:
10000760:	4b02      	ldr	r3, [pc, #8]	@ (1000076c <irq_get_vtable_handler+0xc>)
10000762:	3010      	adds	r0, #16
10000764:	689b      	ldr	r3, [r3, #8]
10000766:	0080      	lsls	r0, r0, #2
10000768:	58c0      	ldr	r0, [r0, r3]
1000076a:	4770      	bx	lr
1000076c:	e000ed00 	.word	0xe000ed00

10000770 <irq_set_exclusive_handler>:
10000770:	b570      	push	{r4, r5, r6, lr}
10000772:	000d      	movs	r5, r1
10000774:	f3ef 8610 	mrs	r6, PRIMASK
10000778:	b672      	cpsid	i
1000077a:	4a0f      	ldr	r2, [pc, #60]	@ (100007b8 <irq_set_exclusive_handler+0x48>)
1000077c:	6813      	ldr	r3, [r2, #0]
1000077e:	2b00      	cmp	r3, #0
10000780:	d0fc      	beq.n	1000077c <irq_set_exclusive_handler+0xc>
10000782:	f3bf 8f5f 	dmb	sy
10000786:	4b0d      	ldr	r3, [pc, #52]	@ (100007bc <irq_set_exclusive_handler+0x4c>)
10000788:	3010      	adds	r0, #16
1000078a:	689b      	ldr	r3, [r3, #8]
1000078c:	0084      	lsls	r4, r0, #2
1000078e:	591b      	ldr	r3, [r3, r4]
10000790:	4a0b      	ldr	r2, [pc, #44]	@ (100007c0 <irq_set_exclusive_handler+0x50>)
10000792:	4293      	cmp	r3, r2
10000794:	d003      	beq.n	1000079e <irq_set_exclusive_handler+0x2e>
10000796:	429d      	cmp	r5, r3
10000798:	d001      	beq.n	1000079e <irq_set_exclusive_handler+0x2e>
1000079a:	f001 f943 	bl	10001a24 <hard_assertion_failure>
1000079e:	4b07      	ldr	r3, [pc, #28]	@ (100007bc <irq_set_exclusive_handler+0x4c>)
100007a0:	689b      	ldr	r3, [r3, #8]
100007a2:	511d      	str	r5, [r3, r4]
100007a4:	f3bf 8f5f 	dmb	sy
100007a8:	f3bf 8f5f 	dmb	sy
100007ac:	2200      	movs	r2, #0
100007ae:	4b02      	ldr	r3, [pc, #8]	@ (100007b8 <irq_set_exclusive_handler+0x48>)
100007b0:	601a      	str	r2, [r3, #0]
100007b2:	f386 8810 	msr	PRIMASK, r6
100007b6:	bd70      	pop	{r4, r5, r6, pc}
100007b8:	d0000124 	.word	0xd0000124
100007bc:	e000ed00 	.word	0xe000ed00
100007c0:	100001cd 	.word	0x100001cd

100007c4 <irq_remove_handler>:
100007c4:	b5f0      	push	{r4, r5, r6, r7, lr}
100007c6:	46de      	mov	lr, fp
100007c8:	4657      	mov	r7, sl
100007ca:	464e      	mov	r6, r9
100007cc:	4645      	mov	r5, r8
100007ce:	b5e0      	push	{r5, r6, r7, lr}
100007d0:	000c      	movs	r4, r1
100007d2:	b083      	sub	sp, #12
100007d4:	f3ef 8810 	mrs	r8, PRIMASK
100007d8:	b672      	cpsid	i
100007da:	4a5d      	ldr	r2, [pc, #372]	@ (10000950 <irq_remove_handler+0x18c>)
100007dc:	6813      	ldr	r3, [r2, #0]
100007de:	2b00      	cmp	r3, #0
100007e0:	d0fc      	beq.n	100007dc <irq_remove_handler+0x18>
100007e2:	f3bf 8f5f 	dmb	sy
100007e6:	4b5b      	ldr	r3, [pc, #364]	@ (10000954 <irq_remove_handler+0x190>)
100007e8:	495b      	ldr	r1, [pc, #364]	@ (10000958 <irq_remove_handler+0x194>)
100007ea:	689a      	ldr	r2, [r3, #8]
100007ec:	0003      	movs	r3, r0
100007ee:	3310      	adds	r3, #16
100007f0:	009f      	lsls	r7, r3, #2
100007f2:	59d5      	ldr	r5, [r2, r7]
100007f4:	428d      	cmp	r5, r1
100007f6:	d039      	beq.n	1000086c <irq_remove_handler+0xa8>
100007f8:	42a5      	cmp	r5, r4
100007fa:	d04a      	beq.n	10000892 <irq_remove_handler+0xce>
100007fc:	4e57      	ldr	r6, [pc, #348]	@ (1000095c <irq_remove_handler+0x198>)
100007fe:	1baa      	subs	r2, r5, r6
10000800:	2a2f      	cmp	r2, #47	@ 0x2f
10000802:	d833      	bhi.n	1000086c <irq_remove_handler+0xa8>
10000804:	2201      	movs	r2, #1
10000806:	4692      	mov	sl, r2
10000808:	4082      	lsls	r2, r0
1000080a:	4691      	mov	r9, r2
1000080c:	4648      	mov	r0, r9
1000080e:	4a54      	ldr	r2, [pc, #336]	@ (10000960 <irq_remove_handler+0x19c>)
10000810:	6812      	ldr	r2, [r2, #0]
10000812:	4010      	ands	r0, r2
10000814:	9001      	str	r0, [sp, #4]
10000816:	4648      	mov	r0, r9
10000818:	4a52      	ldr	r2, [pc, #328]	@ (10000964 <irq_remove_handler+0x1a0>)
1000081a:	6010      	str	r0, [r2, #0]
1000081c:	f3bf 8f5f 	dmb	sy
10000820:	f3ef 8205 	mrs	r2, IPSR
10000824:	4693      	mov	fp, r2
10000826:	2a00      	cmp	r2, #0
10000828:	d035      	beq.n	10000896 <irq_remove_handler+0xd2>
1000082a:	4293      	cmp	r3, r2
1000082c:	d001      	beq.n	10000832 <irq_remove_handler+0x6e>
1000082e:	f001 f8f9 	bl	10001a24 <hard_assertion_failure>
10000832:	002a      	movs	r2, r5
10000834:	4653      	mov	r3, sl
10000836:	439a      	bics	r2, r3
10000838:	6890      	ldr	r0, [r2, #8]
1000083a:	4284      	cmp	r4, r0
1000083c:	d108      	bne.n	10000850 <irq_remove_handler+0x8c>
1000083e:	e075      	b.n	1000092c <irq_remove_handler+0x168>
10000840:	004b      	lsls	r3, r1, #1
10000842:	185b      	adds	r3, r3, r1
10000844:	009b      	lsls	r3, r3, #2
10000846:	18f3      	adds	r3, r6, r3
10000848:	6898      	ldr	r0, [r3, #8]
1000084a:	42a0      	cmp	r0, r4
1000084c:	d034      	beq.n	100008b8 <irq_remove_handler+0xf4>
1000084e:	001a      	movs	r2, r3
10000850:	2106      	movs	r1, #6
10000852:	5651      	ldrsb	r1, [r2, r1]
10000854:	2900      	cmp	r1, #0
10000856:	daf3      	bge.n	10000840 <irq_remove_handler+0x7c>
10000858:	4284      	cmp	r4, r0
1000085a:	d053      	beq.n	10000904 <irq_remove_handler+0x140>
1000085c:	9b01      	ldr	r3, [sp, #4]
1000085e:	2b00      	cmp	r3, #0
10000860:	d026      	beq.n	100008b0 <irq_remove_handler+0xec>
10000862:	464a      	mov	r2, r9
10000864:	4b40      	ldr	r3, [pc, #256]	@ (10000968 <irq_remove_handler+0x1a4>)
10000866:	601a      	str	r2, [r3, #0]
10000868:	4b3d      	ldr	r3, [pc, #244]	@ (10000960 <irq_remove_handler+0x19c>)
1000086a:	601a      	str	r2, [r3, #0]
1000086c:	4b39      	ldr	r3, [pc, #228]	@ (10000954 <irq_remove_handler+0x190>)
1000086e:	689b      	ldr	r3, [r3, #8]
10000870:	51dd      	str	r5, [r3, r7]
10000872:	f3bf 8f5f 	dmb	sy
10000876:	f3bf 8f5f 	dmb	sy
1000087a:	2200      	movs	r2, #0
1000087c:	4b34      	ldr	r3, [pc, #208]	@ (10000950 <irq_remove_handler+0x18c>)
1000087e:	601a      	str	r2, [r3, #0]
10000880:	f388 8810 	msr	PRIMASK, r8
10000884:	b003      	add	sp, #12
10000886:	bcf0      	pop	{r4, r5, r6, r7}
10000888:	46bb      	mov	fp, r7
1000088a:	46b2      	mov	sl, r6
1000088c:	46a9      	mov	r9, r5
1000088e:	46a0      	mov	r8, r4
10000890:	bdf0      	pop	{r4, r5, r6, r7, pc}
10000892:	000d      	movs	r5, r1
10000894:	e7ea      	b.n	1000086c <irq_remove_handler+0xa8>
10000896:	002a      	movs	r2, r5
10000898:	4653      	mov	r3, sl
1000089a:	439a      	bics	r2, r3
1000089c:	6890      	ldr	r0, [r2, #8]
1000089e:	4284      	cmp	r4, r0
100008a0:	d1d6      	bne.n	10000850 <irq_remove_handler+0x8c>
100008a2:	2006      	movs	r0, #6
100008a4:	5610      	ldrsb	r0, [r2, r0]
100008a6:	0013      	movs	r3, r2
100008a8:	2800      	cmp	r0, #0
100008aa:	da09      	bge.n	100008c0 <irq_remove_handler+0xfc>
100008ac:	000d      	movs	r5, r1
100008ae:	e031      	b.n	10000914 <irq_remove_handler+0x150>
100008b0:	464a      	mov	r2, r9
100008b2:	4b2c      	ldr	r3, [pc, #176]	@ (10000964 <irq_remove_handler+0x1a0>)
100008b4:	601a      	str	r2, [r3, #0]
100008b6:	e7d9      	b.n	1000086c <irq_remove_handler+0xa8>
100008b8:	2006      	movs	r0, #6
100008ba:	5618      	ldrsb	r0, [r3, r0]
100008bc:	2800      	cmp	r0, #0
100008be:	db22      	blt.n	10000906 <irq_remove_handler+0x142>
100008c0:	0042      	lsls	r2, r0, #1
100008c2:	1811      	adds	r1, r2, r0
100008c4:	0089      	lsls	r1, r1, #2
100008c6:	1874      	adds	r4, r6, r1
100008c8:	468a      	mov	sl, r1
100008ca:	68a1      	ldr	r1, [r4, #8]
100008cc:	6099      	str	r1, [r3, #8]
100008ce:	79e1      	ldrb	r1, [r4, #7]
100008d0:	71d9      	strb	r1, [r3, #7]
100008d2:	2106      	movs	r1, #6
100008d4:	5661      	ldrsb	r1, [r4, r1]
100008d6:	7199      	strb	r1, [r3, #6]
100008d8:	2900      	cmp	r1, #0
100008da:	db25      	blt.n	10000928 <irq_remove_handler+0x164>
100008dc:	88a4      	ldrh	r4, [r4, #4]
100008de:	1af1      	subs	r1, r6, r3
100008e0:	0564      	lsls	r4, r4, #21
100008e2:	1524      	asrs	r4, r4, #20
100008e4:	4454      	add	r4, sl
100008e6:	1909      	adds	r1, r1, r4
100008e8:	24e0      	movs	r4, #224	@ 0xe0
100008ea:	0509      	lsls	r1, r1, #20
100008ec:	0d49      	lsrs	r1, r1, #21
100008ee:	0224      	lsls	r4, r4, #8
100008f0:	4321      	orrs	r1, r4
100008f2:	8099      	strh	r1, [r3, #4]
100008f4:	1813      	adds	r3, r2, r0
100008f6:	4a1d      	ldr	r2, [pc, #116]	@ (1000096c <irq_remove_handler+0x1a8>)
100008f8:	009b      	lsls	r3, r3, #2
100008fa:	7811      	ldrb	r1, [r2, #0]
100008fc:	18f3      	adds	r3, r6, r3
100008fe:	7199      	strb	r1, [r3, #6]
10000900:	7010      	strb	r0, [r2, #0]
10000902:	e7ab      	b.n	1000085c <irq_remove_handler+0x98>
10000904:	0013      	movs	r3, r2
10000906:	4659      	mov	r1, fp
10000908:	2900      	cmp	r1, #0
1000090a:	d114      	bne.n	10000936 <irq_remove_handler+0x172>
1000090c:	31ff      	adds	r1, #255	@ 0xff
1000090e:	7191      	strb	r1, [r2, #6]
10000910:	4917      	ldr	r1, [pc, #92]	@ (10000970 <irq_remove_handler+0x1ac>)
10000912:	8091      	strh	r1, [r2, #4]
10000914:	4915      	ldr	r1, [pc, #84]	@ (1000096c <irq_remove_handler+0x1a8>)
10000916:	780a      	ldrb	r2, [r1, #0]
10000918:	719a      	strb	r2, [r3, #6]
1000091a:	4a16      	ldr	r2, [pc, #88]	@ (10000974 <irq_remove_handler+0x1b0>)
1000091c:	1b9b      	subs	r3, r3, r6
1000091e:	415b      	adcs	r3, r3
10000920:	435a      	muls	r2, r3
10000922:	0d12      	lsrs	r2, r2, #20
10000924:	700a      	strb	r2, [r1, #0]
10000926:	e799      	b.n	1000085c <irq_remove_handler+0x98>
10000928:	4913      	ldr	r1, [pc, #76]	@ (10000978 <irq_remove_handler+0x1b4>)
1000092a:	e7e2      	b.n	100008f2 <irq_remove_handler+0x12e>
1000092c:	2006      	movs	r0, #6
1000092e:	5610      	ldrsb	r0, [r2, r0]
10000930:	0013      	movs	r3, r2
10000932:	2800      	cmp	r0, #0
10000934:	dac4      	bge.n	100008c0 <irq_remove_handler+0xfc>
10000936:	4a11      	ldr	r2, [pc, #68]	@ (1000097c <irq_remove_handler+0x1b8>)
10000938:	4911      	ldr	r1, [pc, #68]	@ (10000980 <irq_remove_handler+0x1bc>)
1000093a:	1ad2      	subs	r2, r2, r3
1000093c:	3a08      	subs	r2, #8
1000093e:	0250      	lsls	r0, r2, #9
10000940:	0d40      	lsrs	r0, r0, #21
10000942:	4301      	orrs	r1, r0
10000944:	8099      	strh	r1, [r3, #4]
10000946:	490f      	ldr	r1, [pc, #60]	@ (10000984 <irq_remove_handler+0x1c0>)
10000948:	0852      	lsrs	r2, r2, #1
1000094a:	430a      	orrs	r2, r1
1000094c:	80da      	strh	r2, [r3, #6]
1000094e:	e785      	b.n	1000085c <irq_remove_handler+0x98>
10000950:	d0000124 	.word	0xd0000124
10000954:	e000ed00 	.word	0xe000ed00
10000958:	100001cd 	.word	0x100001cd
1000095c:	20000d0c 	.word	0x20000d0c
10000960:	e000e100 	.word	0xe000e100
10000964:	e000e180 	.word	0xe000e180
10000968:	e000e280 	.word	0xe000e280
1000096c:	200150ad 	.word	0x200150ad
10000970:	ffffbd01 	.word	0xffffbd01
10000974:	0000aaaa 	.word	0x0000aaaa
10000978:	0000bd01 	.word	0x0000bd01
1000097c:	20000d46 	.word	0x20000d46
10000980:	fffff000 	.word	0xfffff000
10000984:	fffff800 	.word	0xfffff800

10000988 <irq_add_tail_to_free_list>:
10000988:	b5f0      	push	{r4, r5, r6, r7, lr}
1000098a:	f3ef 8405 	mrs	r4, IPSR
1000098e:	46c6      	mov	lr, r8
10000990:	2601      	movs	r6, #1
10000992:	b500      	push	{lr}
10000994:	4306      	orrs	r6, r0
10000996:	f3ef 8c10 	mrs	ip, PRIMASK
1000099a:	b672      	cpsid	i
1000099c:	4a1c      	ldr	r2, [pc, #112]	@ (10000a10 <irq_add_tail_to_free_list+0x88>)
1000099e:	6813      	ldr	r3, [r2, #0]
100009a0:	2b00      	cmp	r3, #0
100009a2:	d0fc      	beq.n	1000099e <irq_add_tail_to_free_list+0x16>
100009a4:	f3bf 8f5f 	dmb	sy
100009a8:	4f1a      	ldr	r7, [pc, #104]	@ (10000a14 <irq_add_tail_to_free_list+0x8c>)
100009aa:	00a4      	lsls	r4, r4, #2
100009ac:	68bb      	ldr	r3, [r7, #8]
100009ae:	4d1a      	ldr	r5, [pc, #104]	@ (10000a18 <irq_add_tail_to_free_list+0x90>)
100009b0:	591b      	ldr	r3, [r3, r4]
100009b2:	0002      	movs	r2, r0
100009b4:	4698      	mov	r8, r3
100009b6:	4919      	ldr	r1, [pc, #100]	@ (10000a1c <irq_add_tail_to_free_list+0x94>)
100009b8:	2300      	movs	r3, #0
100009ba:	1b52      	subs	r2, r2, r5
100009bc:	4152      	adcs	r2, r2
100009be:	4351      	muls	r1, r2
100009c0:	0d09      	lsrs	r1, r1, #20
100009c2:	002a      	movs	r2, r5
100009c4:	b249      	sxtb	r1, r1
100009c6:	45b0      	cmp	r8, r6
100009c8:	d015      	beq.n	100009f6 <irq_add_tail_to_free_list+0x6e>
100009ca:	2406      	movs	r4, #6
100009cc:	5714      	ldrsb	r4, [r2, r4]
100009ce:	428c      	cmp	r4, r1
100009d0:	d015      	beq.n	100009fe <irq_add_tail_to_free_list+0x76>
100009d2:	3301      	adds	r3, #1
100009d4:	320c      	adds	r2, #12
100009d6:	2b04      	cmp	r3, #4
100009d8:	d1f7      	bne.n	100009ca <irq_add_tail_to_free_list+0x42>
100009da:	4b11      	ldr	r3, [pc, #68]	@ (10000a20 <irq_add_tail_to_free_list+0x98>)
100009dc:	781a      	ldrb	r2, [r3, #0]
100009de:	7019      	strb	r1, [r3, #0]
100009e0:	7182      	strb	r2, [r0, #6]
100009e2:	f3bf 8f5f 	dmb	sy
100009e6:	2200      	movs	r2, #0
100009e8:	4b09      	ldr	r3, [pc, #36]	@ (10000a10 <irq_add_tail_to_free_list+0x88>)
100009ea:	601a      	str	r2, [r3, #0]
100009ec:	f38c 8810 	msr	PRIMASK, ip
100009f0:	bc80      	pop	{r7}
100009f2:	46b8      	mov	r8, r7
100009f4:	bdf0      	pop	{r4, r5, r6, r7, pc}
100009f6:	68bb      	ldr	r3, [r7, #8]
100009f8:	4a0a      	ldr	r2, [pc, #40]	@ (10000a24 <irq_add_tail_to_free_list+0x9c>)
100009fa:	511a      	str	r2, [r3, r4]
100009fc:	e7ed      	b.n	100009da <irq_add_tail_to_free_list+0x52>
100009fe:	005a      	lsls	r2, r3, #1
10000a00:	18d3      	adds	r3, r2, r3
10000a02:	009b      	lsls	r3, r3, #2
10000a04:	18ed      	adds	r5, r5, r3
10000a06:	23ff      	movs	r3, #255	@ 0xff
10000a08:	71ab      	strb	r3, [r5, #6]
10000a0a:	4b07      	ldr	r3, [pc, #28]	@ (10000a28 <irq_add_tail_to_free_list+0xa0>)
10000a0c:	80ab      	strh	r3, [r5, #4]
10000a0e:	e7e4      	b.n	100009da <irq_add_tail_to_free_list+0x52>
10000a10:	d0000124 	.word	0xd0000124
10000a14:	e000ed00 	.word	0xe000ed00
10000a18:	20000d0c 	.word	0x20000d0c
10000a1c:	0000aaaa 	.word	0x0000aaaa
10000a20:	200150ad 	.word	0x200150ad
10000a24:	100001cd 	.word	0x100001cd
10000a28:	ffffbd01 	.word	0xffffbd01

10000a2c <irq_init_priorities>:
10000a2c:	4b05      	ldr	r3, [pc, #20]	@ (10000a44 <irq_init_priorities+0x18>)
10000a2e:	4a06      	ldr	r2, [pc, #24]	@ (10000a48 <irq_init_priorities+0x1c>)
10000a30:	6013      	str	r3, [r2, #0]
10000a32:	4a06      	ldr	r2, [pc, #24]	@ (10000a4c <irq_init_priorities+0x20>)
10000a34:	6013      	str	r3, [r2, #0]
10000a36:	6053      	str	r3, [r2, #4]
10000a38:	6093      	str	r3, [r2, #8]
10000a3a:	60d3      	str	r3, [r2, #12]
10000a3c:	6113      	str	r3, [r2, #16]
10000a3e:	6153      	str	r3, [r2, #20]
10000a40:	6193      	str	r3, [r2, #24]
10000a42:	4770      	bx	lr
10000a44:	80808080 	.word	0x80808080
10000a48:	e000e400 	.word	0xe000e400
10000a4c:	e000e404 	.word	0xe000e404

10000a50 <lock_init>:
10000a50:	4b02      	ldr	r3, [pc, #8]	@ (10000a5c <lock_init+0xc>)
10000a52:	469c      	mov	ip, r3
10000a54:	4461      	add	r1, ip
10000a56:	0089      	lsls	r1, r1, #2
10000a58:	6001      	str	r1, [r0, #0]
10000a5a:	4770      	bx	lr
10000a5c:	34000040 	.word	0x34000040

10000a60 <mutex_init>:
10000a60:	b510      	push	{r4, lr}
10000a62:	0004      	movs	r4, r0
10000a64:	f7ff fe52 	bl	1000070c <next_striped_spin_lock_num>
10000a68:	0001      	movs	r1, r0
10000a6a:	0020      	movs	r0, r4
10000a6c:	f7ff fff0 	bl	10000a50 <lock_init>
10000a70:	23ff      	movs	r3, #255	@ 0xff
10000a72:	7123      	strb	r3, [r4, #4]
10000a74:	f3bf 8f5f 	dmb	sy
10000a78:	bd10      	pop	{r4, pc}
10000a7a:	46c0      	nop			@ (mov r8, r8)

10000a7c <recursive_mutex_init>:
10000a7c:	b510      	push	{r4, lr}
10000a7e:	0004      	movs	r4, r0
10000a80:	f7ff fe44 	bl	1000070c <next_striped_spin_lock_num>
10000a84:	0001      	movs	r1, r0
10000a86:	0020      	movs	r0, r4
10000a88:	f7ff ffe2 	bl	10000a50 <lock_init>
10000a8c:	23ff      	movs	r3, #255	@ 0xff
10000a8e:	80a3      	strh	r3, [r4, #4]
10000a90:	f3bf 8f5f 	dmb	sy
10000a94:	bd10      	pop	{r4, pc}
10000a96:	46c0      	nop			@ (mov r8, r8)

10000a98 <timer_pool_entry_comparator>:
10000a98:	6883      	ldr	r3, [r0, #8]
10000a9a:	480b      	ldr	r0, [pc, #44]	@ (10000ac8 <timer_pool_entry_comparator+0x30>)
10000a9c:	b510      	push	{r4, lr}
10000a9e:	4684      	mov	ip, r0
10000aa0:	4461      	add	r1, ip
10000aa2:	4462      	add	r2, ip
10000aa4:	0112      	lsls	r2, r2, #4
10000aa6:	0109      	lsls	r1, r1, #4
10000aa8:	1859      	adds	r1, r3, r1
10000aaa:	189b      	adds	r3, r3, r2
10000aac:	685c      	ldr	r4, [r3, #4]
10000aae:	684a      	ldr	r2, [r1, #4]
10000ab0:	2001      	movs	r0, #1
10000ab2:	4294      	cmp	r4, r2
10000ab4:	d801      	bhi.n	10000aba <timer_pool_entry_comparator+0x22>
10000ab6:	d002      	beq.n	10000abe <timer_pool_entry_comparator+0x26>
10000ab8:	2000      	movs	r0, #0
10000aba:	b2c0      	uxtb	r0, r0
10000abc:	bd10      	pop	{r4, pc}
10000abe:	681a      	ldr	r2, [r3, #0]
10000ac0:	680b      	ldr	r3, [r1, #0]
10000ac2:	429a      	cmp	r2, r3
10000ac4:	d8f9      	bhi.n	10000aba <timer_pool_entry_comparator+0x22>
10000ac6:	e7f7      	b.n	10000ab8 <timer_pool_entry_comparator+0x20>
10000ac8:	0fffffff 	.word	0x0fffffff

10000acc <sleep_until_callback>:
10000acc:	4b0a      	ldr	r3, [pc, #40]	@ (10000af8 <sleep_until_callback+0x2c>)
10000ace:	6819      	ldr	r1, [r3, #0]
10000ad0:	f3ef 8010 	mrs	r0, PRIMASK
10000ad4:	b672      	cpsid	i
10000ad6:	680a      	ldr	r2, [r1, #0]
10000ad8:	2a00      	cmp	r2, #0
10000ada:	d0fc      	beq.n	10000ad6 <sleep_until_callback+0xa>
10000adc:	f3bf 8f5f 	dmb	sy
10000ae0:	681b      	ldr	r3, [r3, #0]
10000ae2:	f3bf 8f5f 	dmb	sy
10000ae6:	2200      	movs	r2, #0
10000ae8:	601a      	str	r2, [r3, #0]
10000aea:	f380 8810 	msr	PRIMASK, r0
10000aee:	bf40      	sev
10000af0:	2000      	movs	r0, #0
10000af2:	2100      	movs	r1, #0
10000af4:	4770      	bx	lr
10000af6:	46c0      	nop			@ (mov r8, r8)
10000af8:	20015094 	.word	0x20015094

10000afc <alarm_pool_cancel_alarm.part.0>:
10000afc:	b5f8      	push	{r3, r4, r5, r6, r7, lr}
10000afe:	000b      	movs	r3, r1
10000b00:	0004      	movs	r4, r0
10000b02:	6841      	ldr	r1, [r0, #4]
10000b04:	f3ef 8510 	mrs	r5, PRIMASK
10000b08:	b672      	cpsid	i
10000b0a:	680a      	ldr	r2, [r1, #0]
10000b0c:	2a00      	cmp	r2, #0
10000b0e:	d0fc      	beq.n	10000b0a <alarm_pool_cancel_alarm.part.0+0xe>
10000b10:	f3bf 8f5f 	dmb	sy
10000b14:	22ff      	movs	r2, #255	@ 0xff
10000b16:	6820      	ldr	r0, [r4, #0]
10000b18:	b2d9      	uxtb	r1, r3
10000b1a:	7b46      	ldrb	r6, [r0, #13]
10000b1c:	401a      	ands	r2, r3
10000b1e:	428e      	cmp	r6, r1
10000b20:	d007      	beq.n	10000b32 <alarm_pool_cancel_alarm.part.0+0x36>
10000b22:	6806      	ldr	r6, [r0, #0]
10000b24:	0057      	lsls	r7, r2, #1
10000b26:	18bf      	adds	r7, r7, r2
10000b28:	19f6      	adds	r6, r6, r7
10000b2a:	3e03      	subs	r6, #3
10000b2c:	78b6      	ldrb	r6, [r6, #2]
10000b2e:	2e00      	cmp	r6, #0
10000b30:	d010      	beq.n	10000b54 <alarm_pool_cancel_alarm.part.0+0x58>
10000b32:	68e6      	ldr	r6, [r4, #12]
10000b34:	0a1b      	lsrs	r3, r3, #8
10000b36:	18b2      	adds	r2, r6, r2
10000b38:	3a01      	subs	r2, #1
10000b3a:	7812      	ldrb	r2, [r2, #0]
10000b3c:	b2db      	uxtb	r3, r3
10000b3e:	429a      	cmp	r2, r3
10000b40:	d00d      	beq.n	10000b5e <alarm_pool_cancel_alarm.part.0+0x62>
10000b42:	2000      	movs	r0, #0
10000b44:	6863      	ldr	r3, [r4, #4]
10000b46:	f3bf 8f5f 	dmb	sy
10000b4a:	2200      	movs	r2, #0
10000b4c:	601a      	str	r2, [r3, #0]
10000b4e:	f385 8810 	msr	PRIMASK, r5
10000b52:	bdf8      	pop	{r3, r4, r5, r6, r7, pc}
10000b54:	6922      	ldr	r2, [r4, #16]
10000b56:	4293      	cmp	r3, r2
10000b58:	d1f3      	bne.n	10000b42 <alarm_pool_cancel_alarm.part.0+0x46>
10000b5a:	6126      	str	r6, [r4, #16]
10000b5c:	e7f1      	b.n	10000b42 <alarm_pool_cancel_alarm.part.0+0x46>
10000b5e:	f000 fcdb 	bl	10001518 <ph_remove_and_free_node>
10000b62:	e7ef      	b.n	10000b44 <alarm_pool_cancel_alarm.part.0+0x48>

10000b64 <add_alarm_under_lock>:
10000b64:	b5f8      	push	{r3, r4, r5, r6, r7, lr}
10000b66:	4657      	mov	r7, sl
10000b68:	464e      	mov	r6, r9
10000b6a:	4645      	mov	r5, r8
10000b6c:	46de      	mov	lr, fp
10000b6e:	b5e0      	push	{r5, r6, r7, lr}
10000b70:	4698      	mov	r8, r3
10000b72:	ab0c      	add	r3, sp, #48	@ 0x30
10000b74:	781c      	ldrb	r4, [r3, #0]
10000b76:	ab0d      	add	r3, sp, #52	@ 0x34
10000b78:	781b      	ldrb	r3, [r3, #0]
10000b7a:	0007      	movs	r7, r0
10000b7c:	4691      	mov	r9, r2
10000b7e:	469a      	mov	sl, r3
10000b80:	6806      	ldr	r6, [r0, #0]
10000b82:	2c00      	cmp	r4, #0
10000b84:	d03b      	beq.n	10000bfe <add_alarm_under_lock+0x9a>
10000b86:	0023      	movs	r3, r4
10000b88:	0065      	lsls	r5, r4, #1
10000b8a:	6831      	ldr	r1, [r6, #0]
10000b8c:	192d      	adds	r5, r5, r4
10000b8e:	3d03      	subs	r5, #3
10000b90:	1949      	adds	r1, r1, r5
10000b92:	4a37      	ldr	r2, [pc, #220]	@ (10000c70 <add_alarm_under_lock+0x10c>)
10000b94:	4694      	mov	ip, r2
10000b96:	4463      	add	r3, ip
10000b98:	011a      	lsls	r2, r3, #4
10000b9a:	68bb      	ldr	r3, [r7, #8]
10000b9c:	189b      	adds	r3, r3, r2
10000b9e:	464a      	mov	r2, r9
10000ba0:	601a      	str	r2, [r3, #0]
10000ba2:	4642      	mov	r2, r8
10000ba4:	605a      	str	r2, [r3, #4]
10000ba6:	9a0a      	ldr	r2, [sp, #40]	@ 0x28
10000ba8:	609a      	str	r2, [r3, #8]
10000baa:	9a0b      	ldr	r2, [sp, #44]	@ 0x2c
10000bac:	60da      	str	r2, [r3, #12]
10000bae:	2300      	movs	r3, #0
10000bb0:	708b      	strb	r3, [r1, #2]
10000bb2:	704b      	strb	r3, [r1, #1]
10000bb4:	700b      	strb	r3, [r1, #0]
10000bb6:	7b73      	ldrb	r3, [r6, #13]
10000bb8:	469b      	mov	fp, r3
10000bba:	2b00      	cmp	r3, #0
10000bbc:	d03b      	beq.n	10000c36 <add_alarm_under_lock+0xd2>
10000bbe:	0022      	movs	r2, r4
10000bc0:	6873      	ldr	r3, [r6, #4]
10000bc2:	4659      	mov	r1, fp
10000bc4:	68b0      	ldr	r0, [r6, #8]
10000bc6:	4798      	blx	r3
10000bc8:	465b      	mov	r3, fp
10000bca:	005b      	lsls	r3, r3, #1
10000bcc:	445b      	add	r3, fp
10000bce:	6832      	ldr	r2, [r6, #0]
10000bd0:	3b03      	subs	r3, #3
10000bd2:	2800      	cmp	r0, #0
10000bd4:	d027      	beq.n	10000c26 <add_alarm_under_lock+0xc2>
10000bd6:	4658      	mov	r0, fp
10000bd8:	1955      	adds	r5, r2, r5
10000bda:	70a8      	strb	r0, [r5, #2]
10000bdc:	18d1      	adds	r1, r2, r3
10000bde:	5cd3      	ldrb	r3, [r2, r3]
10000be0:	2b00      	cmp	r3, #0
10000be2:	d000      	beq.n	10000be6 <add_alarm_under_lock+0x82>
10000be4:	706b      	strb	r3, [r5, #1]
10000be6:	465b      	mov	r3, fp
10000be8:	700c      	strb	r4, [r1, #0]
10000bea:	7373      	strb	r3, [r6, #13]
10000bec:	455c      	cmp	r4, fp
10000bee:	d023      	beq.n	10000c38 <add_alarm_under_lock+0xd4>
10000bf0:	0020      	movs	r0, r4
10000bf2:	bcf0      	pop	{r4, r5, r6, r7}
10000bf4:	46bb      	mov	fp, r7
10000bf6:	46b2      	mov	sl, r6
10000bf8:	46a9      	mov	r9, r5
10000bfa:	46a0      	mov	r8, r4
10000bfc:	bdf8      	pop	{r3, r4, r5, r6, r7, pc}
10000bfe:	7bb0      	ldrb	r0, [r6, #14]
10000c00:	2800      	cmp	r0, #0
10000c02:	d0f6      	beq.n	10000bf2 <add_alarm_under_lock+0x8e>
10000c04:	0045      	lsls	r5, r0, #1
10000c06:	6831      	ldr	r1, [r6, #0]
10000c08:	182d      	adds	r5, r5, r0
10000c0a:	3d03      	subs	r5, #3
10000c0c:	1949      	adds	r1, r1, r5
10000c0e:	784a      	ldrb	r2, [r1, #1]
10000c10:	0003      	movs	r3, r0
10000c12:	73b2      	strb	r2, [r6, #14]
10000c14:	2a00      	cmp	r2, #0
10000c16:	d100      	bne.n	10000c1a <add_alarm_under_lock+0xb6>
10000c18:	73f2      	strb	r2, [r6, #15]
10000c1a:	2200      	movs	r2, #0
10000c1c:	0004      	movs	r4, r0
10000c1e:	708a      	strb	r2, [r1, #2]
10000c20:	704a      	strb	r2, [r1, #1]
10000c22:	700a      	strb	r2, [r1, #0]
10000c24:	e7b5      	b.n	10000b92 <add_alarm_under_lock+0x2e>
10000c26:	18d3      	adds	r3, r2, r3
10000c28:	709c      	strb	r4, [r3, #2]
10000c2a:	1951      	adds	r1, r2, r5
10000c2c:	5d52      	ldrb	r2, [r2, r5]
10000c2e:	2a00      	cmp	r2, #0
10000c30:	d118      	bne.n	10000c64 <add_alarm_under_lock+0x100>
10000c32:	465b      	mov	r3, fp
10000c34:	700b      	strb	r3, [r1, #0]
10000c36:	7374      	strb	r4, [r6, #13]
10000c38:	464a      	mov	r2, r9
10000c3a:	4643      	mov	r3, r8
10000c3c:	7d38      	ldrb	r0, [r7, #20]
10000c3e:	f000 fb21 	bl	10001284 <hardware_alarm_set_target>
10000c42:	1e05      	subs	r5, r0, #0
10000c44:	d106      	bne.n	10000c54 <add_alarm_under_lock+0xf0>
10000c46:	9b0e      	ldr	r3, [sp, #56]	@ 0x38
10000c48:	2b00      	cmp	r3, #0
10000c4a:	d0d1      	beq.n	10000bf0 <add_alarm_under_lock+0x8c>
10000c4c:	9b0e      	ldr	r3, [sp, #56]	@ 0x38
10000c4e:	0020      	movs	r0, r4
10000c50:	701d      	strb	r5, [r3, #0]
10000c52:	e7ce      	b.n	10000bf2 <add_alarm_under_lock+0x8e>
10000c54:	4653      	mov	r3, sl
10000c56:	2b00      	cmp	r3, #0
10000c58:	d1f5      	bne.n	10000c46 <add_alarm_under_lock+0xe2>
10000c5a:	0021      	movs	r1, r4
10000c5c:	6838      	ldr	r0, [r7, #0]
10000c5e:	f000 fc5b 	bl	10001518 <ph_remove_and_free_node>
10000c62:	e7f0      	b.n	10000c46 <add_alarm_under_lock+0xe2>
10000c64:	705a      	strb	r2, [r3, #1]
10000c66:	465b      	mov	r3, fp
10000c68:	700b      	strb	r3, [r1, #0]
10000c6a:	7374      	strb	r4, [r6, #13]
10000c6c:	e7e4      	b.n	10000c38 <add_alarm_under_lock+0xd4>
10000c6e:	46c0      	nop			@ (mov r8, r8)
10000c70:	0fffffff 	.word	0x0fffffff

10000c74 <alarm_pool_alarm_callback>:
10000c74:	b5f0      	push	{r4, r5, r6, r7, lr}
10000c76:	46de      	mov	lr, fp
10000c78:	4657      	mov	r7, sl
10000c7a:	464e      	mov	r6, r9
10000c7c:	4645      	mov	r5, r8
10000c7e:	2300      	movs	r3, #0
10000c80:	b5e0      	push	{r5, r6, r7, lr}
10000c82:	b08b      	sub	sp, #44	@ 0x2c
10000c84:	9308      	str	r3, [sp, #32]
10000c86:	4b68      	ldr	r3, [pc, #416]	@ (10000e28 <alarm_pool_alarm_callback+0x1b4>)
10000c88:	0082      	lsls	r2, r0, #2
10000c8a:	58d4      	ldr	r4, [r2, r3]
10000c8c:	2300      	movs	r3, #0
10000c8e:	469b      	mov	fp, r3
10000c90:	9009      	str	r0, [sp, #36]	@ 0x24
10000c92:	f000 fa97 	bl	100011c4 <time_us_64>
10000c96:	0002      	movs	r2, r0
10000c98:	000b      	movs	r3, r1
10000c9a:	6860      	ldr	r0, [r4, #4]
10000c9c:	f3ef 8a10 	mrs	sl, PRIMASK
10000ca0:	b672      	cpsid	i
10000ca2:	4656      	mov	r6, sl
10000ca4:	6801      	ldr	r1, [r0, #0]
10000ca6:	2900      	cmp	r1, #0
10000ca8:	d0fc      	beq.n	10000ca4 <alarm_pool_alarm_callback+0x30>
10000caa:	46b2      	mov	sl, r6
10000cac:	f3bf 8f5f 	dmb	sy
10000cb0:	6821      	ldr	r1, [r4, #0]
10000cb2:	7b4f      	ldrb	r7, [r1, #13]
10000cb4:	468c      	mov	ip, r1
10000cb6:	2f00      	cmp	r7, #0
10000cb8:	d02e      	beq.n	10000d18 <alarm_pool_alarm_callback+0xa4>
10000cba:	68a5      	ldr	r5, [r4, #8]
10000cbc:	495b      	ldr	r1, [pc, #364]	@ (10000e2c <alarm_pool_alarm_callback+0x1b8>)
10000cbe:	46a9      	mov	r9, r5
10000cc0:	1879      	adds	r1, r7, r1
10000cc2:	0109      	lsls	r1, r1, #4
10000cc4:	4489      	add	r9, r1
10000cc6:	4649      	mov	r1, r9
10000cc8:	6808      	ldr	r0, [r1, #0]
10000cca:	6849      	ldr	r1, [r1, #4]
10000ccc:	0005      	movs	r5, r0
10000cce:	000e      	movs	r6, r1
10000cd0:	1aad      	subs	r5, r5, r2
10000cd2:	419e      	sbcs	r6, r3
10000cd4:	2e00      	cmp	r6, #0
10000cd6:	dd5f      	ble.n	10000d98 <alarm_pool_alarm_callback+0x124>
10000cd8:	0002      	movs	r2, r0
10000cda:	000b      	movs	r3, r1
10000cdc:	9809      	ldr	r0, [sp, #36]	@ 0x24
10000cde:	f000 fad1 	bl	10001284 <hardware_alarm_set_target>
10000ce2:	2300      	movs	r3, #0
10000ce4:	2200      	movs	r2, #0
10000ce6:	4699      	mov	r9, r3
10000ce8:	2300      	movs	r3, #0
10000cea:	9206      	str	r2, [sp, #24]
10000cec:	9307      	str	r3, [sp, #28]
10000cee:	2300      	movs	r3, #0
10000cf0:	4698      	mov	r8, r3
10000cf2:	6863      	ldr	r3, [r4, #4]
10000cf4:	f3bf 8f5f 	dmb	sy
10000cf8:	465a      	mov	r2, fp
10000cfa:	601a      	str	r2, [r3, #0]
10000cfc:	f38a 8810 	msr	PRIMASK, sl
10000d00:	4643      	mov	r3, r8
10000d02:	2b00      	cmp	r3, #0
10000d04:	d112      	bne.n	10000d2c <alarm_pool_alarm_callback+0xb8>
10000d06:	2800      	cmp	r0, #0
10000d08:	d1c3      	bne.n	10000c92 <alarm_pool_alarm_callback+0x1e>
10000d0a:	b00b      	add	sp, #44	@ 0x2c
10000d0c:	bcf0      	pop	{r4, r5, r6, r7}
10000d0e:	46bb      	mov	fp, r7
10000d10:	46b2      	mov	sl, r6
10000d12:	46a9      	mov	r9, r5
10000d14:	46a0      	mov	r8, r4
10000d16:	bdf0      	pop	{r4, r5, r6, r7, pc}
10000d18:	2300      	movs	r3, #0
10000d1a:	2200      	movs	r2, #0
10000d1c:	4699      	mov	r9, r3
10000d1e:	2300      	movs	r3, #0
10000d20:	9206      	str	r2, [sp, #24]
10000d22:	9307      	str	r3, [sp, #28]
10000d24:	2300      	movs	r3, #0
10000d26:	2000      	movs	r0, #0
10000d28:	4698      	mov	r8, r3
10000d2a:	e7e2      	b.n	10000cf2 <alarm_pool_alarm_callback+0x7e>
10000d2c:	9b08      	ldr	r3, [sp, #32]
10000d2e:	4649      	mov	r1, r9
10000d30:	0218      	lsls	r0, r3, #8
10000d32:	4338      	orrs	r0, r7
10000d34:	47c0      	blx	r8
10000d36:	6862      	ldr	r2, [r4, #4]
10000d38:	0005      	movs	r5, r0
10000d3a:	000e      	movs	r6, r1
10000d3c:	f3ef 8a10 	mrs	sl, PRIMASK
10000d40:	b672      	cpsid	i
10000d42:	6813      	ldr	r3, [r2, #0]
10000d44:	2b00      	cmp	r3, #0
10000d46:	d0fc      	beq.n	10000d42 <alarm_pool_alarm_callback+0xce>
10000d48:	f3bf 8f5f 	dmb	sy
10000d4c:	2e00      	cmp	r6, #0
10000d4e:	db41      	blt.n	10000dd4 <alarm_pool_alarm_callback+0x160>
10000d50:	002b      	movs	r3, r5
10000d52:	4333      	orrs	r3, r6
10000d54:	d002      	beq.n	10000d5c <alarm_pool_alarm_callback+0xe8>
10000d56:	6923      	ldr	r3, [r4, #16]
10000d58:	2b00      	cmp	r3, #0
10000d5a:	d156      	bne.n	10000e0a <alarm_pool_alarm_callback+0x196>
10000d5c:	6823      	ldr	r3, [r4, #0]
10000d5e:	7bda      	ldrb	r2, [r3, #15]
10000d60:	2a00      	cmp	r2, #0
10000d62:	d005      	beq.n	10000d70 <alarm_pool_alarm_callback+0xfc>
10000d64:	6819      	ldr	r1, [r3, #0]
10000d66:	0050      	lsls	r0, r2, #1
10000d68:	1882      	adds	r2, r0, r2
10000d6a:	188a      	adds	r2, r1, r2
10000d6c:	3a03      	subs	r2, #3
10000d6e:	7057      	strb	r7, [r2, #1]
10000d70:	7b9a      	ldrb	r2, [r3, #14]
10000d72:	2a00      	cmp	r2, #0
10000d74:	d100      	bne.n	10000d78 <alarm_pool_alarm_callback+0x104>
10000d76:	739f      	strb	r7, [r3, #14]
10000d78:	73df      	strb	r7, [r3, #15]
10000d7a:	68e2      	ldr	r2, [r4, #12]
10000d7c:	3f01      	subs	r7, #1
10000d7e:	5dd3      	ldrb	r3, [r2, r7]
10000d80:	3301      	adds	r3, #1
10000d82:	55d3      	strb	r3, [r2, r7]
10000d84:	465b      	mov	r3, fp
10000d86:	6123      	str	r3, [r4, #16]
10000d88:	6863      	ldr	r3, [r4, #4]
10000d8a:	f3bf 8f5f 	dmb	sy
10000d8e:	465a      	mov	r2, fp
10000d90:	601a      	str	r2, [r3, #0]
10000d92:	f38a 8810 	msr	PRIMASK, sl
10000d96:	e77c      	b.n	10000c92 <alarm_pool_alarm_callback+0x1e>
10000d98:	2e00      	cmp	r6, #0
10000d9a:	d102      	bne.n	10000da2 <alarm_pool_alarm_callback+0x12e>
10000d9c:	2d00      	cmp	r5, #0
10000d9e:	d000      	beq.n	10000da2 <alarm_pool_alarm_callback+0x12e>
10000da0:	e79a      	b.n	10000cd8 <alarm_pool_alarm_callback+0x64>
10000da2:	2100      	movs	r1, #0
10000da4:	4660      	mov	r0, ip
10000da6:	f000 fb8b 	bl	100014c0 <ph_remove_head>
10000daa:	464b      	mov	r3, r9
10000dac:	681a      	ldr	r2, [r3, #0]
10000dae:	685b      	ldr	r3, [r3, #4]
10000db0:	9206      	str	r2, [sp, #24]
10000db2:	9307      	str	r3, [sp, #28]
10000db4:	464b      	mov	r3, r9
10000db6:	689b      	ldr	r3, [r3, #8]
10000db8:	4698      	mov	r8, r3
10000dba:	464b      	mov	r3, r9
10000dbc:	68db      	ldr	r3, [r3, #12]
10000dbe:	4699      	mov	r9, r3
10000dc0:	68e3      	ldr	r3, [r4, #12]
10000dc2:	19db      	adds	r3, r3, r7
10000dc4:	3b01      	subs	r3, #1
10000dc6:	781b      	ldrb	r3, [r3, #0]
10000dc8:	9308      	str	r3, [sp, #32]
10000dca:	021b      	lsls	r3, r3, #8
10000dcc:	4303      	orrs	r3, r0
10000dce:	6123      	str	r3, [r4, #16]
10000dd0:	2000      	movs	r0, #0
10000dd2:	e78e      	b.n	10000cf2 <alarm_pool_alarm_callback+0x7e>
10000dd4:	6923      	ldr	r3, [r4, #16]
10000dd6:	2b00      	cmp	r3, #0
10000dd8:	d0c0      	beq.n	10000d5c <alarm_pool_alarm_callback+0xe8>
10000dda:	9a06      	ldr	r2, [sp, #24]
10000ddc:	9b07      	ldr	r3, [sp, #28]
10000dde:	2180      	movs	r1, #128	@ 0x80
10000de0:	1b52      	subs	r2, r2, r5
10000de2:	41b3      	sbcs	r3, r6
10000de4:	0609      	lsls	r1, r1, #24
10000de6:	428b      	cmp	r3, r1
10000de8:	d302      	bcc.n	10000df0 <alarm_pool_alarm_callback+0x17c>
10000dea:	2201      	movs	r2, #1
10000dec:	4b10      	ldr	r3, [pc, #64]	@ (10000e30 <alarm_pool_alarm_callback+0x1bc>)
10000dee:	4252      	negs	r2, r2
10000df0:	2100      	movs	r1, #0
10000df2:	9104      	str	r1, [sp, #16]
10000df4:	3101      	adds	r1, #1
10000df6:	9103      	str	r1, [sp, #12]
10000df8:	4649      	mov	r1, r9
10000dfa:	9101      	str	r1, [sp, #4]
10000dfc:	4641      	mov	r1, r8
10000dfe:	0020      	movs	r0, r4
10000e00:	9702      	str	r7, [sp, #8]
10000e02:	9100      	str	r1, [sp, #0]
10000e04:	f7ff feae 	bl	10000b64 <add_alarm_under_lock>
10000e08:	e7bc      	b.n	10000d84 <alarm_pool_alarm_callback+0x110>
10000e0a:	f000 f9db 	bl	100011c4 <time_us_64>
10000e0e:	002a      	movs	r2, r5
10000e10:	0033      	movs	r3, r6
10000e12:	1812      	adds	r2, r2, r0
10000e14:	414b      	adcs	r3, r1
10000e16:	2180      	movs	r1, #128	@ 0x80
10000e18:	0609      	lsls	r1, r1, #24
10000e1a:	428b      	cmp	r3, r1
10000e1c:	d3e8      	bcc.n	10000df0 <alarm_pool_alarm_callback+0x17c>
10000e1e:	2201      	movs	r2, #1
10000e20:	4b03      	ldr	r3, [pc, #12]	@ (10000e30 <alarm_pool_alarm_callback+0x1bc>)
10000e22:	4252      	negs	r2, r2
10000e24:	e7e4      	b.n	10000df0 <alarm_pool_alarm_callback+0x17c>
10000e26:	46c0      	nop			@ (mov r8, r8)
10000e28:	20002280 	.word	0x20002280
10000e2c:	0fffffff 	.word	0x0fffffff
10000e30:	7fffffff 	.word	0x7fffffff

10000e34 <alarm_pool_init_default>:
10000e34:	b510      	push	{r4, lr}
10000e36:	4c14      	ldr	r4, [pc, #80]	@ (10000e88 <alarm_pool_init_default+0x54>)
10000e38:	6863      	ldr	r3, [r4, #4]
10000e3a:	2b00      	cmp	r3, #0
10000e3c:	d004      	beq.n	10000e48 <alarm_pool_init_default+0x14>
10000e3e:	210a      	movs	r1, #10
10000e40:	4812      	ldr	r0, [pc, #72]	@ (10000e8c <alarm_pool_init_default+0x58>)
10000e42:	f7ff fe05 	bl	10000a50 <lock_init>
10000e46:	bd10      	pop	{r4, pc}
10000e48:	0023      	movs	r3, r4
10000e4a:	4a11      	ldr	r2, [pc, #68]	@ (10000e90 <alarm_pool_init_default+0x5c>)
10000e4c:	2110      	movs	r1, #16
10000e4e:	6820      	ldr	r0, [r4, #0]
10000e50:	f000 faca 	bl	100013e8 <ph_post_alloc_init>
10000e54:	2003      	movs	r0, #3
10000e56:	f000 f9a9 	bl	100011ac <hardware_alarm_claim>
10000e5a:	2003      	movs	r0, #3
10000e5c:	f000 fa7a 	bl	10001354 <hardware_alarm_cancel>
10000e60:	2003      	movs	r0, #3
10000e62:	490c      	ldr	r1, [pc, #48]	@ (10000e94 <alarm_pool_init_default+0x60>)
10000e64:	f000 f9c8 	bl	100011f8 <hardware_alarm_set_callback>
10000e68:	f7ff fc50 	bl	1000070c <next_striped_spin_lock_num>
10000e6c:	4b0a      	ldr	r3, [pc, #40]	@ (10000e98 <alarm_pool_init_default+0x64>)
10000e6e:	469c      	mov	ip, r3
10000e70:	2303      	movs	r3, #3
10000e72:	7523      	strb	r3, [r4, #20]
10000e74:	23d0      	movs	r3, #208	@ 0xd0
10000e76:	061b      	lsls	r3, r3, #24
10000e78:	681b      	ldr	r3, [r3, #0]
10000e7a:	4460      	add	r0, ip
10000e7c:	7563      	strb	r3, [r4, #21]
10000e7e:	4b07      	ldr	r3, [pc, #28]	@ (10000e9c <alarm_pool_init_default+0x68>)
10000e80:	0080      	lsls	r0, r0, #2
10000e82:	6060      	str	r0, [r4, #4]
10000e84:	60dc      	str	r4, [r3, #12]
10000e86:	e7da      	b.n	10000e3e <alarm_pool_init_default+0xa>
10000e88:	20000d54 	.word	0x20000d54
10000e8c:	20015094 	.word	0x20015094
10000e90:	10000a99 	.word	0x10000a99
10000e94:	10000c75 	.word	0x10000c75
10000e98:	34000040 	.word	0x34000040
10000e9c:	20002280 	.word	0x20002280

10000ea0 <alarm_pool_add_alarm_at>:
10000ea0:	b5f0      	push	{r4, r5, r6, r7, lr}
10000ea2:	4657      	mov	r7, sl
10000ea4:	464e      	mov	r6, r9
10000ea6:	46de      	mov	lr, fp
10000ea8:	4645      	mov	r5, r8
10000eaa:	b5e0      	push	{r5, r6, r7, lr}
10000eac:	b08b      	sub	sp, #44	@ 0x2c
10000eae:	001f      	movs	r7, r3
10000eb0:	9b14      	ldr	r3, [sp, #80]	@ 0x50
10000eb2:	4680      	mov	r8, r0
10000eb4:	469b      	mov	fp, r3
10000eb6:	9b15      	ldr	r3, [sp, #84]	@ 0x54
10000eb8:	0016      	movs	r6, r2
10000eba:	469a      	mov	sl, r3
10000ebc:	ab16      	add	r3, sp, #88	@ 0x58
10000ebe:	781b      	ldrb	r3, [r3, #0]
10000ec0:	aa02      	add	r2, sp, #8
10000ec2:	9307      	str	r3, [sp, #28]
10000ec4:	2300      	movs	r3, #0
10000ec6:	4699      	mov	r9, r3
10000ec8:	77d3      	strb	r3, [r2, #31]
10000eca:	4643      	mov	r3, r8
10000ecc:	685a      	ldr	r2, [r3, #4]
10000ece:	f3ef 8410 	mrs	r4, PRIMASK
10000ed2:	b672      	cpsid	i
10000ed4:	6813      	ldr	r3, [r2, #0]
10000ed6:	2b00      	cmp	r3, #0
10000ed8:	d0fc      	beq.n	10000ed4 <alarm_pool_add_alarm_at+0x34>
10000eda:	f3bf 8f5f 	dmb	sy
10000ede:	aa02      	add	r2, sp, #8
10000ee0:	4694      	mov	ip, r2
10000ee2:	231f      	movs	r3, #31
10000ee4:	4463      	add	r3, ip
10000ee6:	9304      	str	r3, [sp, #16]
10000ee8:	464b      	mov	r3, r9
10000eea:	9303      	str	r3, [sp, #12]
10000eec:	9302      	str	r3, [sp, #8]
10000eee:	4653      	mov	r3, sl
10000ef0:	9301      	str	r3, [sp, #4]
10000ef2:	465b      	mov	r3, fp
10000ef4:	0032      	movs	r2, r6
10000ef6:	9300      	str	r3, [sp, #0]
10000ef8:	4640      	mov	r0, r8
10000efa:	003b      	movs	r3, r7
10000efc:	f7ff fe32 	bl	10000b64 <add_alarm_under_lock>
10000f00:	4643      	mov	r3, r8
10000f02:	2800      	cmp	r0, #0
10000f04:	d10d      	bne.n	10000f22 <alarm_pool_add_alarm_at+0x82>
10000f06:	685b      	ldr	r3, [r3, #4]
10000f08:	f3bf 8f5f 	dmb	sy
10000f0c:	6018      	str	r0, [r3, #0]
10000f0e:	f384 8810 	msr	PRIMASK, r4
10000f12:	3801      	subs	r0, #1
10000f14:	b00b      	add	sp, #44	@ 0x2c
10000f16:	bcf0      	pop	{r4, r5, r6, r7}
10000f18:	46bb      	mov	fp, r7
10000f1a:	46b2      	mov	sl, r6
10000f1c:	46a9      	mov	r9, r5
10000f1e:	46a0      	mov	r8, r4
10000f20:	bdf0      	pop	{r4, r5, r6, r7, pc}
10000f22:	4642      	mov	r2, r8
10000f24:	68db      	ldr	r3, [r3, #12]
10000f26:	6852      	ldr	r2, [r2, #4]
10000f28:	181b      	adds	r3, r3, r0
10000f2a:	3b01      	subs	r3, #1
10000f2c:	781b      	ldrb	r3, [r3, #0]
10000f2e:	f3bf 8f5f 	dmb	sy
10000f32:	4649      	mov	r1, r9
10000f34:	6011      	str	r1, [r2, #0]
10000f36:	f384 8810 	msr	PRIMASK, r4
10000f3a:	aa02      	add	r2, sp, #8
10000f3c:	7fd2      	ldrb	r2, [r2, #31]
10000f3e:	2a00      	cmp	r2, #0
10000f40:	d102      	bne.n	10000f48 <alarm_pool_add_alarm_at+0xa8>
10000f42:	021b      	lsls	r3, r3, #8
10000f44:	4318      	orrs	r0, r3
10000f46:	e7e5      	b.n	10000f14 <alarm_pool_add_alarm_at+0x74>
10000f48:	9b07      	ldr	r3, [sp, #28]
10000f4a:	2b00      	cmp	r3, #0
10000f4c:	d01d      	beq.n	10000f8a <alarm_pool_add_alarm_at+0xea>
10000f4e:	4651      	mov	r1, sl
10000f50:	2000      	movs	r0, #0
10000f52:	47d8      	blx	fp
10000f54:	0003      	movs	r3, r0
10000f56:	430b      	orrs	r3, r1
10000f58:	d017      	beq.n	10000f8a <alarm_pool_add_alarm_at+0xea>
10000f5a:	0004      	movs	r4, r0
10000f5c:	1e0d      	subs	r5, r1, #0
10000f5e:	da09      	bge.n	10000f74 <alarm_pool_add_alarm_at+0xd4>
10000f60:	2380      	movs	r3, #128	@ 0x80
10000f62:	1b36      	subs	r6, r6, r4
10000f64:	41af      	sbcs	r7, r5
10000f66:	061b      	lsls	r3, r3, #24
10000f68:	429f      	cmp	r7, r3
10000f6a:	d3ae      	bcc.n	10000eca <alarm_pool_add_alarm_at+0x2a>
10000f6c:	2601      	movs	r6, #1
10000f6e:	4f08      	ldr	r7, [pc, #32]	@ (10000f90 <alarm_pool_add_alarm_at+0xf0>)
10000f70:	4276      	negs	r6, r6
10000f72:	e7aa      	b.n	10000eca <alarm_pool_add_alarm_at+0x2a>
10000f74:	f000 f926 	bl	100011c4 <time_us_64>
10000f78:	2380      	movs	r3, #128	@ 0x80
10000f7a:	1900      	adds	r0, r0, r4
10000f7c:	4169      	adcs	r1, r5
10000f7e:	061b      	lsls	r3, r3, #24
10000f80:	0006      	movs	r6, r0
10000f82:	000f      	movs	r7, r1
10000f84:	4299      	cmp	r1, r3
10000f86:	d3a0      	bcc.n	10000eca <alarm_pool_add_alarm_at+0x2a>
10000f88:	e7f0      	b.n	10000f6c <alarm_pool_add_alarm_at+0xcc>
10000f8a:	2000      	movs	r0, #0
10000f8c:	e7c2      	b.n	10000f14 <alarm_pool_add_alarm_at+0x74>
10000f8e:	46c0      	nop			@ (mov r8, r8)
10000f90:	7fffffff 	.word	0x7fffffff

10000f94 <sleep_until>:
10000f94:	b5f0      	push	{r4, r5, r6, r7, lr}
10000f96:	0004      	movs	r4, r0
10000f98:	000d      	movs	r5, r1
10000f9a:	2606      	movs	r6, #6
10000f9c:	4276      	negs	r6, r6
10000f9e:	17f7      	asrs	r7, r6, #31
10000fa0:	46c6      	mov	lr, r8
10000fa2:	1936      	adds	r6, r6, r4
10000fa4:	416f      	adcs	r7, r5
10000fa6:	b500      	push	{lr}
10000fa8:	b084      	sub	sp, #16
10000faa:	428f      	cmp	r7, r1
10000fac:	d814      	bhi.n	10000fd8 <sleep_until+0x44>
10000fae:	d011      	beq.n	10000fd4 <sleep_until+0x40>
10000fb0:	f000 f908 	bl	100011c4 <time_us_64>
10000fb4:	0032      	movs	r2, r6
10000fb6:	003b      	movs	r3, r7
10000fb8:	1a12      	subs	r2, r2, r0
10000fba:	418b      	sbcs	r3, r1
10000fbc:	2b00      	cmp	r3, #0
10000fbe:	dc15      	bgt.n	10000fec <sleep_until+0x58>
10000fc0:	2b00      	cmp	r3, #0
10000fc2:	d03e      	beq.n	10001042 <sleep_until+0xae>
10000fc4:	0020      	movs	r0, r4
10000fc6:	0029      	movs	r1, r5
10000fc8:	f000 f906 	bl	100011d8 <busy_wait_until>
10000fcc:	b004      	add	sp, #16
10000fce:	bc80      	pop	{r7}
10000fd0:	46b8      	mov	r8, r7
10000fd2:	bdf0      	pop	{r4, r5, r6, r7, pc}
10000fd4:	4286      	cmp	r6, r0
10000fd6:	d9eb      	bls.n	10000fb0 <sleep_until+0x1c>
10000fd8:	2600      	movs	r6, #0
10000fda:	2700      	movs	r7, #0
10000fdc:	f000 f8f2 	bl	100011c4 <time_us_64>
10000fe0:	0032      	movs	r2, r6
10000fe2:	003b      	movs	r3, r7
10000fe4:	1a12      	subs	r2, r2, r0
10000fe6:	418b      	sbcs	r3, r1
10000fe8:	2b00      	cmp	r3, #0
10000fea:	dde9      	ble.n	10000fc0 <sleep_until+0x2c>
10000fec:	2300      	movs	r3, #0
10000fee:	9302      	str	r3, [sp, #8]
10000ff0:	9301      	str	r3, [sp, #4]
10000ff2:	4b15      	ldr	r3, [pc, #84]	@ (10001048 <sleep_until+0xb4>)
10000ff4:	0032      	movs	r2, r6
10000ff6:	9300      	str	r3, [sp, #0]
10000ff8:	4814      	ldr	r0, [pc, #80]	@ (1000104c <sleep_until+0xb8>)
10000ffa:	003b      	movs	r3, r7
10000ffc:	f7ff ff50 	bl	10000ea0 <alarm_pool_add_alarm_at>
10001000:	2800      	cmp	r0, #0
10001002:	dbdf      	blt.n	10000fc4 <sleep_until+0x30>
10001004:	2300      	movs	r3, #0
10001006:	4698      	mov	r8, r3
10001008:	46bc      	mov	ip, r7
1000100a:	4a11      	ldr	r2, [pc, #68]	@ (10001050 <sleep_until+0xbc>)
1000100c:	4f11      	ldr	r7, [pc, #68]	@ (10001054 <sleep_until+0xc0>)
1000100e:	6a7b      	ldr	r3, [r7, #36]	@ 0x24
10001010:	459c      	cmp	ip, r3
10001012:	d804      	bhi.n	1000101e <sleep_until+0x8a>
10001014:	6ab9      	ldr	r1, [r7, #40]	@ 0x28
10001016:	428e      	cmp	r6, r1
10001018:	d9d4      	bls.n	10000fc4 <sleep_until+0x30>
1000101a:	459c      	cmp	ip, r3
1000101c:	d1d2      	bne.n	10000fc4 <sleep_until+0x30>
1000101e:	6811      	ldr	r1, [r2, #0]
10001020:	f3ef 8010 	mrs	r0, PRIMASK
10001024:	b672      	cpsid	i
10001026:	680b      	ldr	r3, [r1, #0]
10001028:	2b00      	cmp	r3, #0
1000102a:	d0fc      	beq.n	10001026 <sleep_until+0x92>
1000102c:	f3bf 8f5f 	dmb	sy
10001030:	6813      	ldr	r3, [r2, #0]
10001032:	f3bf 8f5f 	dmb	sy
10001036:	4641      	mov	r1, r8
10001038:	6019      	str	r1, [r3, #0]
1000103a:	f380 8810 	msr	PRIMASK, r0
1000103e:	bf20      	wfe
10001040:	e7e5      	b.n	1000100e <sleep_until+0x7a>
10001042:	2a00      	cmp	r2, #0
10001044:	d0be      	beq.n	10000fc4 <sleep_until+0x30>
10001046:	e7d1      	b.n	10000fec <sleep_until+0x58>
10001048:	10000acd 	.word	0x10000acd
1000104c:	20000d54 	.word	0x20000d54
10001050:	20015094 	.word	0x20015094
10001054:	40054000 	.word	0x40054000

10001058 <sleep_ms>:
10001058:	b570      	push	{r4, r5, r6, lr}
1000105a:	0006      	movs	r6, r0
1000105c:	f000 f8b2 	bl	100011c4 <time_us_64>
10001060:	22fa      	movs	r2, #250	@ 0xfa
10001062:	0004      	movs	r4, r0
10001064:	000d      	movs	r5, r1
10001066:	2300      	movs	r3, #0
10001068:	0030      	movs	r0, r6
1000106a:	2100      	movs	r1, #0
1000106c:	0092      	lsls	r2, r2, #2
1000106e:	f000 ffbf 	bl	10001ff0 <__wrap___aeabi_lmul>
10001072:	2380      	movs	r3, #128	@ 0x80
10001074:	1900      	adds	r0, r0, r4
10001076:	4169      	adcs	r1, r5
10001078:	061b      	lsls	r3, r3, #24
1000107a:	4299      	cmp	r1, r3
1000107c:	d302      	bcc.n	10001084 <sleep_ms+0x2c>
1000107e:	2001      	movs	r0, #1
10001080:	4902      	ldr	r1, [pc, #8]	@ (1000108c <sleep_ms+0x34>)
10001082:	4240      	negs	r0, r0
10001084:	f7ff ff86 	bl	10000f94 <sleep_until>
10001088:	bd70      	pop	{r4, r5, r6, pc}
1000108a:	46c0      	nop			@ (mov r8, r8)
1000108c:	7fffffff 	.word	0x7fffffff

10001090 <best_effort_wfe_or_timeout>:
10001090:	b570      	push	{r4, r5, r6, lr}
10001092:	f3ef 8305 	mrs	r3, IPSR
10001096:	0005      	movs	r5, r0
10001098:	000c      	movs	r4, r1
1000109a:	b084      	sub	sp, #16
1000109c:	2b00      	cmp	r3, #0
1000109e:	d00f      	beq.n	100010c0 <best_effort_wfe_or_timeout+0x30>
100010a0:	4a10      	ldr	r2, [pc, #64]	@ (100010e4 <best_effort_wfe_or_timeout+0x54>)
100010a2:	2000      	movs	r0, #0
100010a4:	6a53      	ldr	r3, [r2, #36]	@ 0x24
100010a6:	42a3      	cmp	r3, r4
100010a8:	d303      	bcc.n	100010b2 <best_effort_wfe_or_timeout+0x22>
100010aa:	6a92      	ldr	r2, [r2, #40]	@ 0x28
100010ac:	3001      	adds	r0, #1
100010ae:	42aa      	cmp	r2, r5
100010b0:	d301      	bcc.n	100010b6 <best_effort_wfe_or_timeout+0x26>
100010b2:	b004      	add	sp, #16
100010b4:	bd70      	pop	{r4, r5, r6, pc}
100010b6:	1b1b      	subs	r3, r3, r4
100010b8:	1e5a      	subs	r2, r3, #1
100010ba:	4193      	sbcs	r3, r2
100010bc:	b2d8      	uxtb	r0, r3
100010be:	e7f8      	b.n	100010b2 <best_effort_wfe_or_timeout+0x22>
100010c0:	4e09      	ldr	r6, [pc, #36]	@ (100010e8 <best_effort_wfe_or_timeout+0x58>)
100010c2:	9302      	str	r3, [sp, #8]
100010c4:	9301      	str	r3, [sp, #4]
100010c6:	4b09      	ldr	r3, [pc, #36]	@ (100010ec <best_effort_wfe_or_timeout+0x5c>)
100010c8:	0002      	movs	r2, r0
100010ca:	9300      	str	r3, [sp, #0]
100010cc:	0030      	movs	r0, r6
100010ce:	000b      	movs	r3, r1
100010d0:	f7ff fee6 	bl	10000ea0 <alarm_pool_add_alarm_at>
100010d4:	1e01      	subs	r1, r0, #0
100010d6:	dde3      	ble.n	100010a0 <best_effort_wfe_or_timeout+0x10>
100010d8:	bf20      	wfe
100010da:	0030      	movs	r0, r6
100010dc:	f7ff fd0e 	bl	10000afc <alarm_pool_cancel_alarm.part.0>
100010e0:	e7de      	b.n	100010a0 <best_effort_wfe_or_timeout+0x10>
100010e2:	46c0      	nop			@ (mov r8, r8)
100010e4:	40054000 	.word	0x40054000
100010e8:	20000d54 	.word	0x20000d54
100010ec:	10000acd 	.word	0x10000acd

100010f0 <hardware_alarm_irq_handler>:
100010f0:	b5f0      	push	{r4, r5, r6, r7, lr}
100010f2:	f3ef 8205 	mrs	r2, IPSR
100010f6:	46d6      	mov	lr, sl
100010f8:	464f      	mov	r7, r9
100010fa:	4646      	mov	r6, r8
100010fc:	0010      	movs	r0, r2
100010fe:	b5c0      	push	{r6, r7, lr}
10001100:	3810      	subs	r0, #16
10001102:	f3ef 8810 	mrs	r8, PRIMASK
10001106:	b672      	cpsid	i
10001108:	4c21      	ldr	r4, [pc, #132]	@ (10001190 <hardware_alarm_irq_handler+0xa0>)
1000110a:	6823      	ldr	r3, [r4, #0]
1000110c:	2b00      	cmp	r3, #0
1000110e:	d0fc      	beq.n	1000110a <hardware_alarm_irq_handler+0x1a>
10001110:	f3bf 8f5f 	dmb	sy
10001114:	2301      	movs	r3, #1
10001116:	0019      	movs	r1, r3
10001118:	4081      	lsls	r1, r0
1000111a:	4d1e      	ldr	r5, [pc, #120]	@ (10001194 <hardware_alarm_irq_handler+0xa4>)
1000111c:	001f      	movs	r7, r3
1000111e:	6369      	str	r1, [r5, #52]	@ 0x34
10001120:	46aa      	mov	sl, r5
10001122:	4d1d      	ldr	r5, [pc, #116]	@ (10001198 <hardware_alarm_irq_handler+0xa8>)
10001124:	6029      	str	r1, [r5, #0]
10001126:	4d1d      	ldr	r5, [pc, #116]	@ (1000119c <hardware_alarm_irq_handler+0xac>)
10001128:	782e      	ldrb	r6, [r5, #0]
1000112a:	46ac      	mov	ip, r5
1000112c:	0035      	movs	r5, r6
1000112e:	40c5      	lsrs	r5, r0
10001130:	402f      	ands	r7, r5
10001132:	422b      	tst	r3, r5
10001134:	d015      	beq.n	10001162 <hardware_alarm_irq_handler+0x72>
10001136:	4653      	mov	r3, sl
10001138:	6a5f      	ldr	r7, [r3, #36]	@ 0x24
1000113a:	4b19      	ldr	r3, [pc, #100]	@ (100011a0 <hardware_alarm_irq_handler+0xb0>)
1000113c:	0085      	lsls	r5, r0, #2
1000113e:	58eb      	ldr	r3, [r5, r3]
10001140:	429f      	cmp	r7, r3
10001142:	d318      	bcc.n	10001176 <hardware_alarm_irq_handler+0x86>
10001144:	4662      	mov	r2, ip
10001146:	4b17      	ldr	r3, [pc, #92]	@ (100011a4 <hardware_alarm_irq_handler+0xb4>)
10001148:	438e      	bics	r6, r1
1000114a:	58eb      	ldr	r3, [r5, r3]
1000114c:	7016      	strb	r6, [r2, #0]
1000114e:	f3bf 8f5f 	dmb	sy
10001152:	2200      	movs	r2, #0
10001154:	6022      	str	r2, [r4, #0]
10001156:	f388 8810 	msr	PRIMASK, r8
1000115a:	2b00      	cmp	r3, #0
1000115c:	d006      	beq.n	1000116c <hardware_alarm_irq_handler+0x7c>
1000115e:	4798      	blx	r3
10001160:	e004      	b.n	1000116c <hardware_alarm_irq_handler+0x7c>
10001162:	f3bf 8f5f 	dmb	sy
10001166:	6027      	str	r7, [r4, #0]
10001168:	f388 8810 	msr	PRIMASK, r8
1000116c:	bce0      	pop	{r5, r6, r7}
1000116e:	46ba      	mov	sl, r7
10001170:	46b1      	mov	r9, r6
10001172:	46a8      	mov	r8, r5
10001174:	bdf0      	pop	{r4, r5, r6, r7, pc}
10001176:	4b0c      	ldr	r3, [pc, #48]	@ (100011a8 <hardware_alarm_irq_handler+0xb8>)
10001178:	0092      	lsls	r2, r2, #2
1000117a:	469c      	mov	ip, r3
1000117c:	4462      	add	r2, ip
1000117e:	6813      	ldr	r3, [r2, #0]
10001180:	6013      	str	r3, [r2, #0]
10001182:	f3bf 8f5f 	dmb	sy
10001186:	2300      	movs	r3, #0
10001188:	6023      	str	r3, [r4, #0]
1000118a:	f388 8810 	msr	PRIMASK, r8
1000118e:	e7ed      	b.n	1000116c <hardware_alarm_irq_handler+0x7c>
10001190:	d0000128 	.word	0xd0000128
10001194:	40054000 	.word	0x40054000
10001198:	4005703c 	.word	0x4005703c
1000119c:	200150ae 	.word	0x200150ae
100011a0:	20015098 	.word	0x20015098
100011a4:	20001718 	.word	0x20001718
100011a8:	40053fd0 	.word	0x40053fd0

100011ac <hardware_alarm_claim>:
100011ac:	b510      	push	{r4, lr}
100011ae:	4b03      	ldr	r3, [pc, #12]	@ (100011bc <hardware_alarm_claim+0x10>)
100011b0:	0001      	movs	r1, r0
100011b2:	0018      	movs	r0, r3
100011b4:	4a02      	ldr	r2, [pc, #8]	@ (100011c0 <hardware_alarm_claim+0x14>)
100011b6:	f7ff fa2b 	bl	10000610 <hw_claim_or_assert>
100011ba:	bd10      	pop	{r4, pc}
100011bc:	200150aa 	.word	0x200150aa
100011c0:	10003af4 	.word	0x10003af4

100011c4 <time_us_64>:
100011c4:	4b03      	ldr	r3, [pc, #12]	@ (100011d4 <time_us_64+0x10>)
100011c6:	6a59      	ldr	r1, [r3, #36]	@ 0x24
100011c8:	000a      	movs	r2, r1
100011ca:	6a98      	ldr	r0, [r3, #40]	@ 0x28
100011cc:	6a59      	ldr	r1, [r3, #36]	@ 0x24
100011ce:	428a      	cmp	r2, r1
100011d0:	d1fa      	bne.n	100011c8 <time_us_64+0x4>
100011d2:	4770      	bx	lr
100011d4:	40054000 	.word	0x40054000

100011d8 <busy_wait_until>:
100011d8:	4a06      	ldr	r2, [pc, #24]	@ (100011f4 <busy_wait_until+0x1c>)
100011da:	6a53      	ldr	r3, [r2, #36]	@ 0x24
100011dc:	4299      	cmp	r1, r3
100011de:	d8fc      	bhi.n	100011da <busy_wait_until+0x2>
100011e0:	d107      	bne.n	100011f2 <busy_wait_until+0x1a>
100011e2:	4b04      	ldr	r3, [pc, #16]	@ (100011f4 <busy_wait_until+0x1c>)
100011e4:	e002      	b.n	100011ec <busy_wait_until+0x14>
100011e6:	6a5a      	ldr	r2, [r3, #36]	@ 0x24
100011e8:	4291      	cmp	r1, r2
100011ea:	d102      	bne.n	100011f2 <busy_wait_until+0x1a>
100011ec:	6a9a      	ldr	r2, [r3, #40]	@ 0x28
100011ee:	4282      	cmp	r2, r0
100011f0:	d3f9      	bcc.n	100011e6 <busy_wait_until+0xe>
100011f2:	4770      	bx	lr
100011f4:	40054000 	.word	0x40054000

100011f8 <hardware_alarm_set_callback>:
100011f8:	b570      	push	{r4, r5, r6, lr}
100011fa:	0004      	movs	r4, r0
100011fc:	000d      	movs	r5, r1
100011fe:	f3ef 8610 	mrs	r6, PRIMASK
10001202:	b672      	cpsid	i
10001204:	4a1a      	ldr	r2, [pc, #104]	@ (10001270 <hardware_alarm_set_callback+0x78>)
10001206:	6813      	ldr	r3, [r2, #0]
10001208:	2b00      	cmp	r3, #0
1000120a:	d0fc      	beq.n	10001206 <hardware_alarm_set_callback+0xe>
1000120c:	f3bf 8f5f 	dmb	sy
10001210:	2d00      	cmp	r5, #0
10001212:	d01b      	beq.n	1000124c <hardware_alarm_set_callback+0x54>
10001214:	0020      	movs	r0, r4
10001216:	f7ff faa3 	bl	10000760 <irq_get_vtable_handler>
1000121a:	4916      	ldr	r1, [pc, #88]	@ (10001274 <hardware_alarm_set_callback+0x7c>)
1000121c:	4281      	cmp	r1, r0
1000121e:	d00a      	beq.n	10001236 <hardware_alarm_set_callback+0x3e>
10001220:	0020      	movs	r0, r4
10001222:	f7ff faa5 	bl	10000770 <irq_set_exclusive_handler>
10001226:	2101      	movs	r1, #1
10001228:	0020      	movs	r0, r4
1000122a:	f7ff fa7b 	bl	10000724 <irq_set_enabled>
1000122e:	2301      	movs	r3, #1
10001230:	40a3      	lsls	r3, r4
10001232:	4a11      	ldr	r2, [pc, #68]	@ (10001278 <hardware_alarm_set_callback+0x80>)
10001234:	6013      	str	r3, [r2, #0]
10001236:	4b11      	ldr	r3, [pc, #68]	@ (1000127c <hardware_alarm_set_callback+0x84>)
10001238:	00a4      	lsls	r4, r4, #2
1000123a:	50e5      	str	r5, [r4, r3]
1000123c:	f3bf 8f5f 	dmb	sy
10001240:	2200      	movs	r2, #0
10001242:	4b0b      	ldr	r3, [pc, #44]	@ (10001270 <hardware_alarm_set_callback+0x78>)
10001244:	601a      	str	r2, [r3, #0]
10001246:	f386 8810 	msr	PRIMASK, r6
1000124a:	bd70      	pop	{r4, r5, r6, pc}
1000124c:	2101      	movs	r1, #1
1000124e:	40a1      	lsls	r1, r4
10001250:	4b0a      	ldr	r3, [pc, #40]	@ (1000127c <hardware_alarm_set_callback+0x84>)
10001252:	00a2      	lsls	r2, r4, #2
10001254:	50d5      	str	r5, [r2, r3]
10001256:	4b0a      	ldr	r3, [pc, #40]	@ (10001280 <hardware_alarm_set_callback+0x88>)
10001258:	0020      	movs	r0, r4
1000125a:	781a      	ldrb	r2, [r3, #0]
1000125c:	438a      	bics	r2, r1
1000125e:	4905      	ldr	r1, [pc, #20]	@ (10001274 <hardware_alarm_set_callback+0x7c>)
10001260:	701a      	strb	r2, [r3, #0]
10001262:	f7ff faaf 	bl	100007c4 <irq_remove_handler>
10001266:	2100      	movs	r1, #0
10001268:	0020      	movs	r0, r4
1000126a:	f7ff fa5b 	bl	10000724 <irq_set_enabled>
1000126e:	e7e5      	b.n	1000123c <hardware_alarm_set_callback+0x44>
10001270:	d0000128 	.word	0xd0000128
10001274:	100010f1 	.word	0x100010f1
10001278:	40056038 	.word	0x40056038
1000127c:	20001718 	.word	0x20001718
10001280:	200150ae 	.word	0x200150ae

10001284 <hardware_alarm_set_target>:
10001284:	b5f0      	push	{r4, r5, r6, r7, lr}
10001286:	464f      	mov	r7, r9
10001288:	46d6      	mov	lr, sl
1000128a:	4646      	mov	r6, r8
1000128c:	b5c0      	push	{r6, r7, lr}
1000128e:	0007      	movs	r7, r0
10001290:	4c2b      	ldr	r4, [pc, #172]	@ (10001340 <hardware_alarm_set_target+0xbc>)
10001292:	6a61      	ldr	r1, [r4, #36]	@ 0x24
10001294:	000d      	movs	r5, r1
10001296:	6aa6      	ldr	r6, [r4, #40]	@ 0x28
10001298:	6a61      	ldr	r1, [r4, #36]	@ 0x24
1000129a:	42a9      	cmp	r1, r5
1000129c:	d1fa      	bne.n	10001294 <hardware_alarm_set_target+0x10>
1000129e:	428b      	cmp	r3, r1
100012a0:	d808      	bhi.n	100012b4 <hardware_alarm_set_target+0x30>
100012a2:	d005      	beq.n	100012b0 <hardware_alarm_set_target+0x2c>
100012a4:	2001      	movs	r0, #1
100012a6:	bce0      	pop	{r5, r6, r7}
100012a8:	46ba      	mov	sl, r7
100012aa:	46b1      	mov	r9, r6
100012ac:	46a8      	mov	r8, r5
100012ae:	bdf0      	pop	{r4, r5, r6, r7, pc}
100012b0:	42b2      	cmp	r2, r6
100012b2:	d9f7      	bls.n	100012a4 <hardware_alarm_set_target+0x20>
100012b4:	f3ef 8a10 	mrs	sl, PRIMASK
100012b8:	b672      	cpsid	i
100012ba:	4822      	ldr	r0, [pc, #136]	@ (10001344 <hardware_alarm_set_target+0xc0>)
100012bc:	6801      	ldr	r1, [r0, #0]
100012be:	2900      	cmp	r1, #0
100012c0:	d0fc      	beq.n	100012bc <hardware_alarm_set_target+0x38>
100012c2:	f3bf 8f5f 	dmb	sy
100012c6:	2501      	movs	r5, #1
100012c8:	40bd      	lsls	r5, r7
100012ca:	491f      	ldr	r1, [pc, #124]	@ (10001348 <hardware_alarm_set_target+0xc4>)
100012cc:	4c1c      	ldr	r4, [pc, #112]	@ (10001340 <hardware_alarm_set_target+0xbc>)
100012ce:	4688      	mov	r8, r1
100012d0:	7809      	ldrb	r1, [r1, #0]
100012d2:	4689      	mov	r9, r1
100012d4:	4329      	orrs	r1, r5
100012d6:	b2c9      	uxtb	r1, r1
100012d8:	468c      	mov	ip, r1
100012da:	4641      	mov	r1, r8
100012dc:	4660      	mov	r0, ip
100012de:	7008      	strb	r0, [r1, #0]
100012e0:	1d39      	adds	r1, r7, #4
100012e2:	0089      	lsls	r1, r1, #2
100012e4:	6365      	str	r5, [r4, #52]	@ 0x34
100012e6:	510a      	str	r2, [r1, r4]
100012e8:	4918      	ldr	r1, [pc, #96]	@ (1000134c <hardware_alarm_set_target+0xc8>)
100012ea:	00b8      	lsls	r0, r7, #2
100012ec:	5043      	str	r3, [r0, r1]
100012ee:	6a21      	ldr	r1, [r4, #32]
100012f0:	2000      	movs	r0, #0
100012f2:	4229      	tst	r1, r5
100012f4:	d019      	beq.n	1000132a <hardware_alarm_set_target+0xa6>
100012f6:	6a61      	ldr	r1, [r4, #36]	@ 0x24
100012f8:	0008      	movs	r0, r1
100012fa:	6aa6      	ldr	r6, [r4, #40]	@ 0x28
100012fc:	6a61      	ldr	r1, [r4, #36]	@ 0x24
100012fe:	4281      	cmp	r1, r0
10001300:	d1fa      	bne.n	100012f8 <hardware_alarm_set_target+0x74>
10001302:	428b      	cmp	r3, r1
10001304:	d819      	bhi.n	1000133a <hardware_alarm_set_target+0xb6>
10001306:	d101      	bne.n	1000130c <hardware_alarm_set_target+0x88>
10001308:	42b2      	cmp	r2, r6
1000130a:	d816      	bhi.n	1000133a <hardware_alarm_set_target+0xb6>
1000130c:	45cc      	cmp	ip, r9
1000130e:	d00b      	beq.n	10001328 <hardware_alarm_set_target+0xa4>
10001310:	4b0b      	ldr	r3, [pc, #44]	@ (10001340 <hardware_alarm_set_target+0xbc>)
10001312:	221f      	movs	r2, #31
10001314:	621d      	str	r5, [r3, #32]
10001316:	635d      	str	r5, [r3, #52]	@ 0x34
10001318:	2301      	movs	r3, #1
1000131a:	403a      	ands	r2, r7
1000131c:	4093      	lsls	r3, r2
1000131e:	4a0c      	ldr	r2, [pc, #48]	@ (10001350 <hardware_alarm_set_target+0xcc>)
10001320:	6013      	str	r3, [r2, #0]
10001322:	4643      	mov	r3, r8
10001324:	464a      	mov	r2, r9
10001326:	701a      	strb	r2, [r3, #0]
10001328:	2001      	movs	r0, #1
1000132a:	f3bf 8f5f 	dmb	sy
1000132e:	2200      	movs	r2, #0
10001330:	4b04      	ldr	r3, [pc, #16]	@ (10001344 <hardware_alarm_set_target+0xc0>)
10001332:	601a      	str	r2, [r3, #0]
10001334:	f38a 8810 	msr	PRIMASK, sl
10001338:	e7b5      	b.n	100012a6 <hardware_alarm_set_target+0x22>
1000133a:	2000      	movs	r0, #0
1000133c:	e7f5      	b.n	1000132a <hardware_alarm_set_target+0xa6>
1000133e:	46c0      	nop			@ (mov r8, r8)
10001340:	40054000 	.word	0x40054000
10001344:	d0000128 	.word	0xd0000128
10001348:	200150ae 	.word	0x200150ae
1000134c:	20015098 	.word	0x20015098
10001350:	e000e280 	.word	0xe000e280

10001354 <hardware_alarm_cancel>:
10001354:	f3ef 8c10 	mrs	ip, PRIMASK
10001358:	b672      	cpsid	i
1000135a:	490a      	ldr	r1, [pc, #40]	@ (10001384 <hardware_alarm_cancel+0x30>)
1000135c:	680b      	ldr	r3, [r1, #0]
1000135e:	2b00      	cmp	r3, #0
10001360:	d0fc      	beq.n	1000135c <hardware_alarm_cancel+0x8>
10001362:	f3bf 8f5f 	dmb	sy
10001366:	2301      	movs	r3, #1
10001368:	4083      	lsls	r3, r0
1000136a:	4a07      	ldr	r2, [pc, #28]	@ (10001388 <hardware_alarm_cancel+0x34>)
1000136c:	4807      	ldr	r0, [pc, #28]	@ (1000138c <hardware_alarm_cancel+0x38>)
1000136e:	6213      	str	r3, [r2, #32]
10001370:	7802      	ldrb	r2, [r0, #0]
10001372:	439a      	bics	r2, r3
10001374:	7002      	strb	r2, [r0, #0]
10001376:	f3bf 8f5f 	dmb	sy
1000137a:	2300      	movs	r3, #0
1000137c:	600b      	str	r3, [r1, #0]
1000137e:	f38c 8810 	msr	PRIMASK, ip
10001382:	4770      	bx	lr
10001384:	d0000128 	.word	0xd0000128
10001388:	40054000 	.word	0x40054000
1000138c:	200150ae 	.word	0x200150ae

10001390 <ph_merge_nodes>:
10001390:	b570      	push	{r4, r5, r6, lr}
10001392:	0006      	movs	r6, r0
10001394:	000d      	movs	r5, r1
10001396:	0014      	movs	r4, r2
10001398:	2900      	cmp	r1, #0
1000139a:	d01d      	beq.n	100013d8 <ph_merge_nodes+0x48>
1000139c:	2a00      	cmp	r2, #0
1000139e:	d012      	beq.n	100013c6 <ph_merge_nodes+0x36>
100013a0:	6873      	ldr	r3, [r6, #4]
100013a2:	6880      	ldr	r0, [r0, #8]
100013a4:	4798      	blx	r3
100013a6:	0062      	lsls	r2, r4, #1
100013a8:	006b      	lsls	r3, r5, #1
100013aa:	1912      	adds	r2, r2, r4
100013ac:	195b      	adds	r3, r3, r5
100013ae:	6831      	ldr	r1, [r6, #0]
100013b0:	3a03      	subs	r2, #3
100013b2:	3b03      	subs	r3, #3
100013b4:	2800      	cmp	r0, #0
100013b6:	d008      	beq.n	100013ca <ph_merge_nodes+0x3a>
100013b8:	188a      	adds	r2, r1, r2
100013ba:	7095      	strb	r5, [r2, #2]
100013bc:	18c8      	adds	r0, r1, r3
100013be:	5ccb      	ldrb	r3, [r1, r3]
100013c0:	2b00      	cmp	r3, #0
100013c2:	d10b      	bne.n	100013dc <ph_merge_nodes+0x4c>
100013c4:	7004      	strb	r4, [r0, #0]
100013c6:	0028      	movs	r0, r5
100013c8:	bd70      	pop	{r4, r5, r6, pc}
100013ca:	18cb      	adds	r3, r1, r3
100013cc:	709c      	strb	r4, [r3, #2]
100013ce:	1888      	adds	r0, r1, r2
100013d0:	5c8a      	ldrb	r2, [r1, r2]
100013d2:	2a00      	cmp	r2, #0
100013d4:	d105      	bne.n	100013e2 <ph_merge_nodes+0x52>
100013d6:	7005      	strb	r5, [r0, #0]
100013d8:	0020      	movs	r0, r4
100013da:	e7f5      	b.n	100013c8 <ph_merge_nodes+0x38>
100013dc:	7053      	strb	r3, [r2, #1]
100013de:	7004      	strb	r4, [r0, #0]
100013e0:	e7f1      	b.n	100013c6 <ph_merge_nodes+0x36>
100013e2:	705a      	strb	r2, [r3, #1]
100013e4:	7005      	strb	r5, [r0, #0]
100013e6:	e7f7      	b.n	100013d8 <ph_merge_nodes+0x48>

100013e8 <ph_post_alloc_init>:
100013e8:	b510      	push	{r4, lr}
100013ea:	6083      	str	r3, [r0, #8]
100013ec:	2300      	movs	r3, #0
100013ee:	b2cc      	uxtb	r4, r1
100013f0:	7343      	strb	r3, [r0, #13]
100013f2:	3301      	adds	r3, #1
100013f4:	6042      	str	r2, [r0, #4]
100013f6:	7304      	strb	r4, [r0, #12]
100013f8:	7383      	strb	r3, [r0, #14]
100013fa:	73c4      	strb	r4, [r0, #15]
100013fc:	6800      	ldr	r0, [r0, #0]
100013fe:	1c42      	adds	r2, r0, #1
10001400:	2c01      	cmp	r4, #1
10001402:	d905      	bls.n	10001410 <ph_post_alloc_init+0x28>
10001404:	3301      	adds	r3, #1
10001406:	b2db      	uxtb	r3, r3
10001408:	7013      	strb	r3, [r2, #0]
1000140a:	3203      	adds	r2, #3
1000140c:	429c      	cmp	r4, r3
1000140e:	d1f9      	bne.n	10001404 <ph_post_alloc_init+0x1c>
10001410:	23ff      	movs	r3, #255	@ 0xff
10001412:	400b      	ands	r3, r1
10001414:	005a      	lsls	r2, r3, #1
10001416:	18d3      	adds	r3, r2, r3
10001418:	18c0      	adds	r0, r0, r3
1000141a:	2300      	movs	r3, #0
1000141c:	3803      	subs	r0, #3
1000141e:	7043      	strb	r3, [r0, #1]
10001420:	bd10      	pop	{r4, pc}
10001422:	46c0      	nop			@ (mov r8, r8)

10001424 <ph_merge_two_pass>:
10001424:	b570      	push	{r4, r5, r6, lr}
10001426:	0004      	movs	r4, r0
10001428:	1e08      	subs	r0, r1, #0
1000142a:	d007      	beq.n	1000143c <ph_merge_two_pass+0x18>
1000142c:	0043      	lsls	r3, r0, #1
1000142e:	6821      	ldr	r1, [r4, #0]
10001430:	181b      	adds	r3, r3, r0
10001432:	3b03      	subs	r3, #3
10001434:	18cb      	adds	r3, r1, r3
10001436:	785a      	ldrb	r2, [r3, #1]
10001438:	2a00      	cmp	r2, #0
1000143a:	d100      	bne.n	1000143e <ph_merge_two_pass+0x1a>
1000143c:	bd70      	pop	{r4, r5, r6, pc}
1000143e:	0055      	lsls	r5, r2, #1
10001440:	18ad      	adds	r5, r5, r2
10001442:	3d03      	subs	r5, #3
10001444:	1949      	adds	r1, r1, r5
10001446:	2500      	movs	r5, #0
10001448:	784e      	ldrb	r6, [r1, #1]
1000144a:	704d      	strb	r5, [r1, #1]
1000144c:	705d      	strb	r5, [r3, #1]
1000144e:	0001      	movs	r1, r0
10001450:	0020      	movs	r0, r4
10001452:	f7ff ff9d 	bl	10001390 <ph_merge_nodes>
10001456:	0031      	movs	r1, r6
10001458:	0005      	movs	r5, r0
1000145a:	0020      	movs	r0, r4
1000145c:	f7ff ffe2 	bl	10001424 <ph_merge_two_pass>
10001460:	0029      	movs	r1, r5
10001462:	0002      	movs	r2, r0
10001464:	0020      	movs	r0, r4
10001466:	f7ff ff93 	bl	10001390 <ph_merge_nodes>
1000146a:	e7e7      	b.n	1000143c <ph_merge_two_pass+0x18>

1000146c <ph_remove_any_head>:
1000146c:	b5f8      	push	{r3, r4, r5, r6, r7, lr}
1000146e:	004d      	lsls	r5, r1, #1
10001470:	186d      	adds	r5, r5, r1
10001472:	6803      	ldr	r3, [r0, #0]
10001474:	3d03      	subs	r5, #3
10001476:	000e      	movs	r6, r1
10001478:	5d59      	ldrb	r1, [r3, r5]
1000147a:	0017      	movs	r7, r2
1000147c:	0004      	movs	r4, r0
1000147e:	f7ff ffd1 	bl	10001424 <ph_merge_two_pass>
10001482:	2f00      	cmp	r7, #0
10001484:	d10c      	bne.n	100014a0 <ph_remove_any_head+0x34>
10001486:	6823      	ldr	r3, [r4, #0]
10001488:	2800      	cmp	r0, #0
1000148a:	d005      	beq.n	10001498 <ph_remove_any_head+0x2c>
1000148c:	2100      	movs	r1, #0
1000148e:	0042      	lsls	r2, r0, #1
10001490:	1812      	adds	r2, r2, r0
10001492:	189a      	adds	r2, r3, r2
10001494:	3a03      	subs	r2, #3
10001496:	7091      	strb	r1, [r2, #2]
10001498:	2200      	movs	r2, #0
1000149a:	195b      	adds	r3, r3, r5
1000149c:	705a      	strb	r2, [r3, #1]
1000149e:	bdf8      	pop	{r3, r4, r5, r6, r7, pc}
100014a0:	7be1      	ldrb	r1, [r4, #15]
100014a2:	6823      	ldr	r3, [r4, #0]
100014a4:	2900      	cmp	r1, #0
100014a6:	d004      	beq.n	100014b2 <ph_remove_any_head+0x46>
100014a8:	004a      	lsls	r2, r1, #1
100014aa:	1852      	adds	r2, r2, r1
100014ac:	189a      	adds	r2, r3, r2
100014ae:	3a03      	subs	r2, #3
100014b0:	7056      	strb	r6, [r2, #1]
100014b2:	7ba2      	ldrb	r2, [r4, #14]
100014b4:	2a00      	cmp	r2, #0
100014b6:	d100      	bne.n	100014ba <ph_remove_any_head+0x4e>
100014b8:	73a6      	strb	r6, [r4, #14]
100014ba:	73e6      	strb	r6, [r4, #15]
100014bc:	e7e4      	b.n	10001488 <ph_remove_any_head+0x1c>
100014be:	46c0      	nop			@ (mov r8, r8)

100014c0 <ph_remove_head>:
100014c0:	b5f8      	push	{r3, r4, r5, r6, r7, lr}
100014c2:	7b46      	ldrb	r6, [r0, #13]
100014c4:	6803      	ldr	r3, [r0, #0]
100014c6:	0075      	lsls	r5, r6, #1
100014c8:	19ad      	adds	r5, r5, r6
100014ca:	3d03      	subs	r5, #3
100014cc:	000f      	movs	r7, r1
100014ce:	5d59      	ldrb	r1, [r3, r5]
100014d0:	0004      	movs	r4, r0
100014d2:	f7ff ffa7 	bl	10001424 <ph_merge_two_pass>
100014d6:	2f00      	cmp	r7, #0
100014d8:	d10e      	bne.n	100014f8 <ph_remove_head+0x38>
100014da:	6823      	ldr	r3, [r4, #0]
100014dc:	2800      	cmp	r0, #0
100014de:	d005      	beq.n	100014ec <ph_remove_head+0x2c>
100014e0:	2100      	movs	r1, #0
100014e2:	0042      	lsls	r2, r0, #1
100014e4:	1812      	adds	r2, r2, r0
100014e6:	189a      	adds	r2, r3, r2
100014e8:	3a03      	subs	r2, #3
100014ea:	7091      	strb	r1, [r2, #2]
100014ec:	2200      	movs	r2, #0
100014ee:	195b      	adds	r3, r3, r5
100014f0:	705a      	strb	r2, [r3, #1]
100014f2:	7360      	strb	r0, [r4, #13]
100014f4:	0030      	movs	r0, r6
100014f6:	bdf8      	pop	{r3, r4, r5, r6, r7, pc}
100014f8:	7be1      	ldrb	r1, [r4, #15]
100014fa:	6823      	ldr	r3, [r4, #0]
100014fc:	2900      	cmp	r1, #0
100014fe:	d004      	beq.n	1000150a <ph_remove_head+0x4a>
10001500:	004a      	lsls	r2, r1, #1
10001502:	1852      	adds	r2, r2, r1
10001504:	189a      	adds	r2, r3, r2
10001506:	3a03      	subs	r2, #3
10001508:	7056      	strb	r6, [r2, #1]
1000150a:	7ba2      	ldrb	r2, [r4, #14]
1000150c:	2a00      	cmp	r2, #0
1000150e:	d100      	bne.n	10001512 <ph_remove_head+0x52>
10001510:	73a6      	strb	r6, [r4, #14]
10001512:	73e6      	strb	r6, [r4, #15]
10001514:	e7e2      	b.n	100014dc <ph_remove_head+0x1c>
10001516:	46c0      	nop			@ (mov r8, r8)

10001518 <ph_remove_and_free_node>:
10001518:	b570      	push	{r4, r5, r6, lr}
1000151a:	0005      	movs	r5, r0
1000151c:	2900      	cmp	r1, #0
1000151e:	d02c      	beq.n	1000157a <ph_remove_and_free_node+0x62>
10001520:	7b43      	ldrb	r3, [r0, #13]
10001522:	428b      	cmp	r3, r1
10001524:	d02e      	beq.n	10001584 <ph_remove_and_free_node+0x6c>
10001526:	004c      	lsls	r4, r1, #1
10001528:	6800      	ldr	r0, [r0, #0]
1000152a:	1864      	adds	r4, r4, r1
1000152c:	3c03      	subs	r4, #3
1000152e:	1904      	adds	r4, r0, r4
10001530:	78a2      	ldrb	r2, [r4, #2]
10001532:	2a00      	cmp	r2, #0
10001534:	d021      	beq.n	1000157a <ph_remove_and_free_node+0x62>
10001536:	0053      	lsls	r3, r2, #1
10001538:	189b      	adds	r3, r3, r2
1000153a:	3b03      	subs	r3, #3
1000153c:	5cc2      	ldrb	r2, [r0, r3]
1000153e:	18c6      	adds	r6, r0, r3
10001540:	428a      	cmp	r2, r1
10001542:	d102      	bne.n	1000154a <ph_remove_and_free_node+0x32>
10001544:	e01b      	b.n	1000157e <ph_remove_and_free_node+0x66>
10001546:	2a00      	cmp	r2, #0
10001548:	d008      	beq.n	1000155c <ph_remove_and_free_node+0x44>
1000154a:	0053      	lsls	r3, r2, #1
1000154c:	189b      	adds	r3, r3, r2
1000154e:	3b03      	subs	r3, #3
10001550:	18c3      	adds	r3, r0, r3
10001552:	785a      	ldrb	r2, [r3, #1]
10001554:	428a      	cmp	r2, r1
10001556:	d1f6      	bne.n	10001546 <ph_remove_and_free_node+0x2e>
10001558:	7862      	ldrb	r2, [r4, #1]
1000155a:	705a      	strb	r2, [r3, #1]
1000155c:	2300      	movs	r3, #0
1000155e:	2201      	movs	r2, #1
10001560:	0028      	movs	r0, r5
10001562:	70a3      	strb	r3, [r4, #2]
10001564:	7063      	strb	r3, [r4, #1]
10001566:	f7ff ff81 	bl	1000146c <ph_remove_any_head>
1000156a:	7b69      	ldrb	r1, [r5, #13]
1000156c:	0002      	movs	r2, r0
1000156e:	0028      	movs	r0, r5
10001570:	f7ff ff0e 	bl	10001390 <ph_merge_nodes>
10001574:	7368      	strb	r0, [r5, #13]
10001576:	2001      	movs	r0, #1
10001578:	e000      	b.n	1000157c <ph_remove_and_free_node+0x64>
1000157a:	2000      	movs	r0, #0
1000157c:	bd70      	pop	{r4, r5, r6, pc}
1000157e:	7863      	ldrb	r3, [r4, #1]
10001580:	7033      	strb	r3, [r6, #0]
10001582:	e7eb      	b.n	1000155c <ph_remove_and_free_node+0x44>
10001584:	2201      	movs	r2, #1
10001586:	0019      	movs	r1, r3
10001588:	f7ff ff70 	bl	1000146c <ph_remove_any_head>
1000158c:	e7f2      	b.n	10001574 <ph_remove_and_free_node+0x5c>
1000158e:	46c0      	nop			@ (mov r8, r8)

10001590 <queue_init_with_spinlock>:
10001590:	b570      	push	{r4, r5, r6, lr}
10001592:	0016      	movs	r6, r2
10001594:	000d      	movs	r5, r1
10001596:	0019      	movs	r1, r3
10001598:	0004      	movs	r4, r0
1000159a:	f7ff fa59 	bl	10000a50 <lock_init>
1000159e:	0029      	movs	r1, r5
100015a0:	1c70      	adds	r0, r6, #1
100015a2:	f000 fda1 	bl	100020e8 <__wrap_calloc>
100015a6:	2300      	movs	r3, #0
100015a8:	81e6      	strh	r6, [r4, #14]
100015aa:	81a5      	strh	r5, [r4, #12]
100015ac:	6060      	str	r0, [r4, #4]
100015ae:	60a3      	str	r3, [r4, #8]
100015b0:	bd70      	pop	{r4, r5, r6, pc}
100015b2:	46c0      	nop			@ (mov r8, r8)

100015b4 <clock_configure.part.0>:
100015b4:	b5f0      	push	{r4, r5, r6, r7, lr}
100015b6:	46de      	mov	lr, fp
100015b8:	464e      	mov	r6, r9
100015ba:	4657      	mov	r7, sl
100015bc:	4645      	mov	r5, r8
100015be:	b5e0      	push	{r5, r6, r7, lr}
100015c0:	b083      	sub	sp, #12
100015c2:	9201      	str	r2, [sp, #4]
100015c4:	0e1a      	lsrs	r2, r3, #24
100015c6:	4693      	mov	fp, r2
100015c8:	021e      	lsls	r6, r3, #8
100015ca:	0005      	movs	r5, r0
100015cc:	2300      	movs	r3, #0
100015ce:	4689      	mov	r9, r1
100015d0:	0030      	movs	r0, r6
100015d2:	4659      	mov	r1, fp
100015d4:	9a0c      	ldr	r2, [sp, #48]	@ 0x30
100015d6:	f000 fac9 	bl	10001b6c <__wrap___aeabi_uldivmod>
100015da:	4b37      	ldr	r3, [pc, #220]	@ (100016b8 <clock_configure.part.0+0x104>)
100015dc:	006c      	lsls	r4, r5, #1
100015de:	469c      	mov	ip, r3
100015e0:	1964      	adds	r4, r4, r5
100015e2:	00a4      	lsls	r4, r4, #2
100015e4:	4464      	add	r4, ip
100015e6:	6863      	ldr	r3, [r4, #4]
100015e8:	0007      	movs	r7, r0
100015ea:	4283      	cmp	r3, r0
100015ec:	d200      	bcs.n	100015f0 <clock_configure.part.0+0x3c>
100015ee:	6060      	str	r0, [r4, #4]
100015f0:	1f2b      	subs	r3, r5, #4
100015f2:	b2db      	uxtb	r3, r3
100015f4:	4698      	mov	r8, r3
100015f6:	2b01      	cmp	r3, #1
100015f8:	d938      	bls.n	1000166c <clock_configure.part.0+0xb8>
100015fa:	23c0      	movs	r3, #192	@ 0xc0
100015fc:	2280      	movs	r2, #128	@ 0x80
100015fe:	019b      	lsls	r3, r3, #6
10001600:	4323      	orrs	r3, r4
10001602:	0112      	lsls	r2, r2, #4
10001604:	601a      	str	r2, [r3, #0]
10001606:	4b2d      	ldr	r3, [pc, #180]	@ (100016bc <clock_configure.part.0+0x108>)
10001608:	00ad      	lsls	r5, r5, #2
1000160a:	5959      	ldr	r1, [r3, r5]
1000160c:	469a      	mov	sl, r3
1000160e:	2900      	cmp	r1, #0
10001610:	d123      	bne.n	1000165a <clock_configure.part.0+0xa6>
10001612:	9b01      	ldr	r3, [sp, #4]
10001614:	6822      	ldr	r2, [r4, #0]
10001616:	015b      	lsls	r3, r3, #5
10001618:	4053      	eors	r3, r2
1000161a:	22e0      	movs	r2, #224	@ 0xe0
1000161c:	401a      	ands	r2, r3
1000161e:	2380      	movs	r3, #128	@ 0x80
10001620:	015b      	lsls	r3, r3, #5
10001622:	4323      	orrs	r3, r4
10001624:	601a      	str	r2, [r3, #0]
10001626:	4642      	mov	r2, r8
10001628:	2a01      	cmp	r2, #1
1000162a:	d938      	bls.n	1000169e <clock_configure.part.0+0xea>
1000162c:	2380      	movs	r3, #128	@ 0x80
1000162e:	2280      	movs	r2, #128	@ 0x80
10001630:	019b      	lsls	r3, r3, #6
10001632:	4323      	orrs	r3, r4
10001634:	0112      	lsls	r2, r2, #4
10001636:	601a      	str	r2, [r3, #0]
10001638:	0030      	movs	r0, r6
1000163a:	003a      	movs	r2, r7
1000163c:	2300      	movs	r3, #0
1000163e:	4659      	mov	r1, fp
10001640:	6067      	str	r7, [r4, #4]
10001642:	f000 fa93 	bl	10001b6c <__wrap___aeabi_uldivmod>
10001646:	4653      	mov	r3, sl
10001648:	5158      	str	r0, [r3, r5]
1000164a:	2001      	movs	r0, #1
1000164c:	b003      	add	sp, #12
1000164e:	bcf0      	pop	{r4, r5, r6, r7}
10001650:	46bb      	mov	fp, r7
10001652:	46b2      	mov	sl, r6
10001654:	46a9      	mov	r9, r5
10001656:	46a0      	mov	r8, r4
10001658:	bdf0      	pop	{r4, r5, r6, r7, pc}
1000165a:	6958      	ldr	r0, [r3, #20]
1000165c:	f000 fa48 	bl	10001af0 <__wrap___aeabi_uidiv>
10001660:	3001      	adds	r0, #1
10001662:	0043      	lsls	r3, r0, #1
10001664:	181b      	adds	r3, r3, r0
10001666:	3b03      	subs	r3, #3
10001668:	d2fd      	bcs.n	10001666 <clock_configure.part.0+0xb2>
1000166a:	e7d2      	b.n	10001612 <clock_configure.part.0+0x5e>
1000166c:	464b      	mov	r3, r9
1000166e:	2b01      	cmp	r3, #1
10001670:	d1c3      	bne.n	100015fa <clock_configure.part.0+0x46>
10001672:	23c0      	movs	r3, #192	@ 0xc0
10001674:	2203      	movs	r2, #3
10001676:	019b      	lsls	r3, r3, #6
10001678:	4323      	orrs	r3, r4
1000167a:	601a      	str	r2, [r3, #0]
1000167c:	3a02      	subs	r2, #2
1000167e:	68a3      	ldr	r3, [r4, #8]
10001680:	421a      	tst	r2, r3
10001682:	d0fc      	beq.n	1000167e <clock_configure.part.0+0xca>
10001684:	9b01      	ldr	r3, [sp, #4]
10001686:	6822      	ldr	r2, [r4, #0]
10001688:	015b      	lsls	r3, r3, #5
1000168a:	4053      	eors	r3, r2
1000168c:	22e0      	movs	r2, #224	@ 0xe0
1000168e:	401a      	ands	r2, r3
10001690:	2380      	movs	r3, #128	@ 0x80
10001692:	015b      	lsls	r3, r3, #5
10001694:	4323      	orrs	r3, r4
10001696:	601a      	str	r2, [r3, #0]
10001698:	4a08      	ldr	r2, [pc, #32]	@ (100016bc <clock_configure.part.0+0x108>)
1000169a:	00ad      	lsls	r5, r5, #2
1000169c:	4692      	mov	sl, r2
1000169e:	464a      	mov	r2, r9
100016a0:	6821      	ldr	r1, [r4, #0]
100016a2:	4051      	eors	r1, r2
100016a4:	2203      	movs	r2, #3
100016a6:	400a      	ands	r2, r1
100016a8:	601a      	str	r2, [r3, #0]
100016aa:	2201      	movs	r2, #1
100016ac:	464b      	mov	r3, r9
100016ae:	409a      	lsls	r2, r3
100016b0:	68a3      	ldr	r3, [r4, #8]
100016b2:	421a      	tst	r2, r3
100016b4:	d0fc      	beq.n	100016b0 <clock_configure.part.0+0xfc>
100016b6:	e7b9      	b.n	1000162c <clock_configure.part.0+0x78>
100016b8:	40008000 	.word	0x40008000
100016bc:	20001d28 	.word	0x20001d28

100016c0 <clock_configure>:
100016c0:	b510      	push	{r4, lr}
100016c2:	b082      	sub	sp, #8
100016c4:	9c04      	ldr	r4, [sp, #16]
100016c6:	429c      	cmp	r4, r3
100016c8:	d804      	bhi.n	100016d4 <clock_configure+0x14>
100016ca:	9400      	str	r4, [sp, #0]
100016cc:	f7ff ff72 	bl	100015b4 <clock_configure.part.0>
100016d0:	b002      	add	sp, #8
100016d2:	bd10      	pop	{r4, pc}
100016d4:	2000      	movs	r0, #0
100016d6:	e7fb      	b.n	100016d0 <clock_configure+0x10>

100016d8 <clocks_init>:
100016d8:	b530      	push	{r4, r5, lr}
100016da:	200c      	movs	r0, #12
100016dc:	b083      	sub	sp, #12
100016de:	f000 f8d7 	bl	10001890 <watchdog_start_tick>
100016e2:	f7fe ff77 	bl	100005d4 <running_on_fpga>
100016e6:	2800      	cmp	r0, #0
100016e8:	d00b      	beq.n	10001702 <clocks_init+0x2a>
100016ea:	482d      	ldr	r0, [pc, #180]	@ (100017a0 <clocks_init+0xc8>)
100016ec:	4a2d      	ldr	r2, [pc, #180]	@ (100017a4 <clocks_init+0xcc>)
100016ee:	0001      	movs	r1, r0
100016f0:	0003      	movs	r3, r0
100016f2:	3128      	adds	r1, #40	@ 0x28
100016f4:	c304      	stmia	r3!, {r2}
100016f6:	428b      	cmp	r3, r1
100016f8:	d1fc      	bne.n	100016f4 <clocks_init+0x1c>
100016fa:	4b2b      	ldr	r3, [pc, #172]	@ (100017a8 <clocks_init+0xd0>)
100016fc:	6243      	str	r3, [r0, #36]	@ 0x24
100016fe:	b003      	add	sp, #12
10001700:	bd30      	pop	{r4, r5, pc}
10001702:	4c2a      	ldr	r4, [pc, #168]	@ (100017ac <clocks_init+0xd4>)
10001704:	67a0      	str	r0, [r4, #120]	@ 0x78
10001706:	f000 f8cb 	bl	100018a0 <xosc_init>
1000170a:	2201      	movs	r2, #1
1000170c:	4b28      	ldr	r3, [pc, #160]	@ (100017b0 <clocks_init+0xd8>)
1000170e:	601a      	str	r2, [r3, #0]
10001710:	6c63      	ldr	r3, [r4, #68]	@ 0x44
10001712:	2b01      	cmp	r3, #1
10001714:	d1fc      	bne.n	10001710 <clocks_init+0x38>
10001716:	2203      	movs	r2, #3
10001718:	4b26      	ldr	r3, [pc, #152]	@ (100017b4 <clocks_init+0xdc>)
1000171a:	601a      	str	r2, [r3, #0]
1000171c:	4a23      	ldr	r2, [pc, #140]	@ (100017ac <clocks_init+0xd4>)
1000171e:	6b93      	ldr	r3, [r2, #56]	@ 0x38
10001720:	2b01      	cmp	r3, #1
10001722:	d1fc      	bne.n	1000171e <clocks_init+0x46>
10001724:	3301      	adds	r3, #1
10001726:	9300      	str	r3, [sp, #0]
10001728:	2101      	movs	r1, #1
1000172a:	4a23      	ldr	r2, [pc, #140]	@ (100017b8 <clocks_init+0xe0>)
1000172c:	4823      	ldr	r0, [pc, #140]	@ (100017bc <clocks_init+0xe4>)
1000172e:	3304      	adds	r3, #4
10001730:	f000 f84e 	bl	100017d0 <pll_init>
10001734:	2305      	movs	r3, #5
10001736:	2101      	movs	r1, #1
10001738:	9300      	str	r3, [sp, #0]
1000173a:	4a21      	ldr	r2, [pc, #132]	@ (100017c0 <clocks_init+0xe8>)
1000173c:	4821      	ldr	r0, [pc, #132]	@ (100017c4 <clocks_init+0xec>)
1000173e:	f000 f847 	bl	100017d0 <pll_init>
10001742:	4b21      	ldr	r3, [pc, #132]	@ (100017c8 <clocks_init+0xf0>)
10001744:	4d21      	ldr	r5, [pc, #132]	@ (100017cc <clocks_init+0xf4>)
10001746:	4c17      	ldr	r4, [pc, #92]	@ (100017a4 <clocks_init+0xcc>)
10001748:	9300      	str	r3, [sp, #0]
1000174a:	2200      	movs	r2, #0
1000174c:	2102      	movs	r1, #2
1000174e:	2004      	movs	r0, #4
10001750:	f7ff ff30 	bl	100015b4 <clock_configure.part.0>
10001754:	002b      	movs	r3, r5
10001756:	2200      	movs	r2, #0
10001758:	2101      	movs	r1, #1
1000175a:	9500      	str	r5, [sp, #0]
1000175c:	2005      	movs	r0, #5
1000175e:	f7ff ff29 	bl	100015b4 <clock_configure.part.0>
10001762:	0023      	movs	r3, r4
10001764:	2200      	movs	r2, #0
10001766:	2100      	movs	r1, #0
10001768:	9400      	str	r4, [sp, #0]
1000176a:	2007      	movs	r0, #7
1000176c:	f7ff ff22 	bl	100015b4 <clock_configure.part.0>
10001770:	0023      	movs	r3, r4
10001772:	2200      	movs	r2, #0
10001774:	2100      	movs	r1, #0
10001776:	9400      	str	r4, [sp, #0]
10001778:	2008      	movs	r0, #8
1000177a:	f7ff ff1b 	bl	100015b4 <clock_configure.part.0>
1000177e:	4b0a      	ldr	r3, [pc, #40]	@ (100017a8 <clocks_init+0xd0>)
10001780:	2200      	movs	r2, #0
10001782:	9300      	str	r3, [sp, #0]
10001784:	2100      	movs	r1, #0
10001786:	0023      	movs	r3, r4
10001788:	2009      	movs	r0, #9
1000178a:	f7ff ff13 	bl	100015b4 <clock_configure.part.0>
1000178e:	002b      	movs	r3, r5
10001790:	2200      	movs	r2, #0
10001792:	2100      	movs	r1, #0
10001794:	9500      	str	r5, [sp, #0]
10001796:	2006      	movs	r0, #6
10001798:	f7ff ff0c 	bl	100015b4 <clock_configure.part.0>
1000179c:	e7af      	b.n	100016fe <clocks_init+0x26>
1000179e:	46c0      	nop			@ (mov r8, r8)
100017a0:	20001d28 	.word	0x20001d28
100017a4:	02dc6c00 	.word	0x02dc6c00
100017a8:	0000b71b 	.word	0x0000b71b
100017ac:	40008000 	.word	0x40008000
100017b0:	4000b03c 	.word	0x4000b03c
100017b4:	4000b030 	.word	0x4000b030
100017b8:	59682f00 	.word	0x59682f00
100017bc:	40028000 	.word	0x40028000
100017c0:	47868c00 	.word	0x47868c00
100017c4:	4002c000 	.word	0x4002c000
100017c8:	00b71b00 	.word	0x00b71b00
100017cc:	07735940 	.word	0x07735940

100017d0 <pll_init>:
100017d0:	b5f8      	push	{r3, r4, r5, r6, r7, lr}
100017d2:	0004      	movs	r4, r0
100017d4:	4822      	ldr	r0, [pc, #136]	@ (10001860 <pll_init+0x90>)
100017d6:	001e      	movs	r6, r3
100017d8:	0017      	movs	r7, r2
100017da:	000d      	movs	r5, r1
100017dc:	f000 f988 	bl	10001af0 <__wrap___aeabi_uidiv>
100017e0:	0001      	movs	r1, r0
100017e2:	0038      	movs	r0, r7
100017e4:	f000 f984 	bl	10001af0 <__wrap___aeabi_uidiv>
100017e8:	9b06      	ldr	r3, [sp, #24]
100017ea:	0436      	lsls	r6, r6, #16
100017ec:	031b      	lsls	r3, r3, #12
100017ee:	431e      	orrs	r6, r3
100017f0:	6823      	ldr	r3, [r4, #0]
100017f2:	2b00      	cmp	r3, #0
100017f4:	db22      	blt.n	1000183c <pll_init+0x6c>
100017f6:	4b1b      	ldr	r3, [pc, #108]	@ (10001864 <pll_init+0x94>)
100017f8:	491b      	ldr	r1, [pc, #108]	@ (10001868 <pll_init+0x98>)
100017fa:	18e3      	adds	r3, r4, r3
100017fc:	1e5a      	subs	r2, r3, #1
100017fe:	4193      	sbcs	r3, r2
10001800:	2280      	movs	r2, #128	@ 0x80
10001802:	0192      	lsls	r2, r2, #6
10001804:	4694      	mov	ip, r2
10001806:	425b      	negs	r3, r3
10001808:	0b1b      	lsrs	r3, r3, #12
1000180a:	4a18      	ldr	r2, [pc, #96]	@ (1000186c <pll_init+0x9c>)
1000180c:	031b      	lsls	r3, r3, #12
1000180e:	4463      	add	r3, ip
10001810:	6013      	str	r3, [r2, #0]
10001812:	4a17      	ldr	r2, [pc, #92]	@ (10001870 <pll_init+0xa0>)
10001814:	6013      	str	r3, [r2, #0]
10001816:	001f      	movs	r7, r3
10001818:	688a      	ldr	r2, [r1, #8]
1000181a:	4397      	bics	r7, r2
1000181c:	d1fb      	bne.n	10001816 <pll_init+0x46>
1000181e:	22c0      	movs	r2, #192	@ 0xc0
10001820:	1d23      	adds	r3, r4, #4
10001822:	0192      	lsls	r2, r2, #6
10001824:	431a      	orrs	r2, r3
10001826:	2321      	movs	r3, #33	@ 0x21
10001828:	6025      	str	r5, [r4, #0]
1000182a:	60a0      	str	r0, [r4, #8]
1000182c:	6013      	str	r3, [r2, #0]
1000182e:	6823      	ldr	r3, [r4, #0]
10001830:	2b00      	cmp	r3, #0
10001832:	dafc      	bge.n	1000182e <pll_init+0x5e>
10001834:	2308      	movs	r3, #8
10001836:	60e6      	str	r6, [r4, #12]
10001838:	6013      	str	r3, [r2, #0]
1000183a:	bdf8      	pop	{r3, r4, r5, r6, r7, pc}
1000183c:	233f      	movs	r3, #63	@ 0x3f
1000183e:	6822      	ldr	r2, [r4, #0]
10001840:	4013      	ands	r3, r2
10001842:	42ab      	cmp	r3, r5
10001844:	d1d7      	bne.n	100017f6 <pll_init+0x26>
10001846:	68a3      	ldr	r3, [r4, #8]
10001848:	051b      	lsls	r3, r3, #20
1000184a:	0d1b      	lsrs	r3, r3, #20
1000184c:	4283      	cmp	r3, r0
1000184e:	d1d2      	bne.n	100017f6 <pll_init+0x26>
10001850:	22ee      	movs	r2, #238	@ 0xee
10001852:	68e3      	ldr	r3, [r4, #12]
10001854:	02d2      	lsls	r2, r2, #11
10001856:	4013      	ands	r3, r2
10001858:	42b3      	cmp	r3, r6
1000185a:	d1cc      	bne.n	100017f6 <pll_init+0x26>
1000185c:	e7ed      	b.n	1000183a <pll_init+0x6a>
1000185e:	46c0      	nop			@ (mov r8, r8)
10001860:	00b71b00 	.word	0x00b71b00
10001864:	bffd4000 	.word	0xbffd4000
10001868:	4000c000 	.word	0x4000c000
1000186c:	4000e000 	.word	0x4000e000
10001870:	4000f000 	.word	0x4000f000

10001874 <vreg_set_voltage>:
10001874:	4b04      	ldr	r3, [pc, #16]	@ (10001888 <vreg_set_voltage+0x14>)
10001876:	0100      	lsls	r0, r0, #4
10001878:	681b      	ldr	r3, [r3, #0]
1000187a:	4a04      	ldr	r2, [pc, #16]	@ (1000188c <vreg_set_voltage+0x18>)
1000187c:	4058      	eors	r0, r3
1000187e:	23f0      	movs	r3, #240	@ 0xf0
10001880:	4003      	ands	r3, r0
10001882:	6013      	str	r3, [r2, #0]
10001884:	4770      	bx	lr
10001886:	46c0      	nop			@ (mov r8, r8)
10001888:	40064000 	.word	0x40064000
1000188c:	40065000 	.word	0x40065000

10001890 <watchdog_start_tick>:
10001890:	2380      	movs	r3, #128	@ 0x80
10001892:	4a02      	ldr	r2, [pc, #8]	@ (1000189c <watchdog_start_tick+0xc>)
10001894:	009b      	lsls	r3, r3, #2
10001896:	4303      	orrs	r3, r0
10001898:	62d3      	str	r3, [r2, #44]	@ 0x2c
1000189a:	4770      	bx	lr
1000189c:	40058000 	.word	0x40058000

100018a0 <xosc_init>:
100018a0:	23aa      	movs	r3, #170	@ 0xaa
100018a2:	4a06      	ldr	r2, [pc, #24]	@ (100018bc <xosc_init+0x1c>)
100018a4:	011b      	lsls	r3, r3, #4
100018a6:	6013      	str	r3, [r2, #0]
100018a8:	232f      	movs	r3, #47	@ 0x2f
100018aa:	4905      	ldr	r1, [pc, #20]	@ (100018c0 <xosc_init+0x20>)
100018ac:	60d3      	str	r3, [r2, #12]
100018ae:	4b05      	ldr	r3, [pc, #20]	@ (100018c4 <xosc_init+0x24>)
100018b0:	6019      	str	r1, [r3, #0]
100018b2:	6853      	ldr	r3, [r2, #4]
100018b4:	2b00      	cmp	r3, #0
100018b6:	dafc      	bge.n	100018b2 <xosc_init+0x12>
100018b8:	4770      	bx	lr
100018ba:	46c0      	nop			@ (mov r8, r8)
100018bc:	40024000 	.word	0x40024000
100018c0:	00fab000 	.word	0x00fab000
100018c4:	40026000 	.word	0x40026000

100018c8 <runtime_init>:
100018c8:	4b2b      	ldr	r3, [pc, #172]	@ (10001978 <runtime_init+0xb0>)
100018ca:	4a2c      	ldr	r2, [pc, #176]	@ (1000197c <runtime_init+0xb4>)
100018cc:	b570      	push	{r4, r5, r6, lr}
100018ce:	601a      	str	r2, [r3, #0]
100018d0:	4a2b      	ldr	r2, [pc, #172]	@ (10001980 <runtime_init+0xb8>)
100018d2:	4b2c      	ldr	r3, [pc, #176]	@ (10001984 <runtime_init+0xbc>)
100018d4:	492c      	ldr	r1, [pc, #176]	@ (10001988 <runtime_init+0xc0>)
100018d6:	601a      	str	r2, [r3, #0]
100018d8:	0014      	movs	r4, r2
100018da:	688b      	ldr	r3, [r1, #8]
100018dc:	439c      	bics	r4, r3
100018de:	d1fb      	bne.n	100018d8 <runtime_init+0x10>
100018e0:	4d2a      	ldr	r5, [pc, #168]	@ (1000198c <runtime_init+0xc4>)
100018e2:	4e2b      	ldr	r6, [pc, #172]	@ (10001990 <runtime_init+0xc8>)
100018e4:	42b5      	cmp	r5, r6
100018e6:	d208      	bcs.n	100018fa <runtime_init+0x32>
100018e8:	3e01      	subs	r6, #1
100018ea:	1b76      	subs	r6, r6, r5
100018ec:	08b6      	lsrs	r6, r6, #2
100018ee:	cd08      	ldmia	r5!, {r3}
100018f0:	4798      	blx	r3
100018f2:	0023      	movs	r3, r4
100018f4:	3401      	adds	r4, #1
100018f6:	42b3      	cmp	r3, r6
100018f8:	d1f9      	bne.n	100018ee <runtime_init+0x26>
100018fa:	f7ff feed 	bl	100016d8 <clocks_init>
100018fe:	4a25      	ldr	r2, [pc, #148]	@ (10001994 <runtime_init+0xcc>)
10001900:	4b20      	ldr	r3, [pc, #128]	@ (10001984 <runtime_init+0xbc>)
10001902:	601a      	str	r2, [r3, #0]
10001904:	4a20      	ldr	r2, [pc, #128]	@ (10001988 <runtime_init+0xc0>)
10001906:	6893      	ldr	r3, [r2, #8]
10001908:	43db      	mvns	r3, r3
1000190a:	01db      	lsls	r3, r3, #7
1000190c:	09dd      	lsrs	r5, r3, #7
1000190e:	2b00      	cmp	r3, #0
10001910:	d1f9      	bne.n	10001906 <runtime_init+0x3e>
10001912:	2240      	movs	r2, #64	@ 0x40
10001914:	4b20      	ldr	r3, [pc, #128]	@ (10001998 <runtime_init+0xd0>)
10001916:	4c21      	ldr	r4, [pc, #132]	@ (1000199c <runtime_init+0xd4>)
10001918:	4e21      	ldr	r6, [pc, #132]	@ (100019a0 <runtime_init+0xd8>)
1000191a:	679a      	str	r2, [r3, #120]	@ 0x78
1000191c:	675a      	str	r2, [r3, #116]	@ 0x74
1000191e:	671a      	str	r2, [r3, #112]	@ 0x70
10001920:	66da      	str	r2, [r3, #108]	@ 0x6c
10001922:	42b4      	cmp	r4, r6
10001924:	d208      	bcs.n	10001938 <runtime_init+0x70>
10001926:	6823      	ldr	r3, [r4, #0]
10001928:	0020      	movs	r0, r4
1000192a:	2b00      	cmp	r3, #0
1000192c:	d020      	beq.n	10001970 <runtime_init+0xa8>
1000192e:	3408      	adds	r4, #8
10001930:	f7ff f8a4 	bl	10000a7c <recursive_mutex_init>
10001934:	42b4      	cmp	r4, r6
10001936:	d3f6      	bcc.n	10001926 <runtime_init+0x5e>
10001938:	4c1a      	ldr	r4, [pc, #104]	@ (100019a4 <runtime_init+0xdc>)
1000193a:	4e1b      	ldr	r6, [pc, #108]	@ (100019a8 <runtime_init+0xe0>)
1000193c:	22c0      	movs	r2, #192	@ 0xc0
1000193e:	68b1      	ldr	r1, [r6, #8]
10001940:	0020      	movs	r0, r4
10001942:	f000 fbff 	bl	10002144 <__wrap___aeabi_memcpy>
10001946:	60b4      	str	r4, [r6, #8]
10001948:	f7fe fed2 	bl	100006f0 <spin_locks_reset>
1000194c:	f7ff f86e 	bl	10000a2c <irq_init_priorities>
10001950:	f7ff fa70 	bl	10000e34 <alarm_pool_init_default>
10001954:	4c15      	ldr	r4, [pc, #84]	@ (100019ac <runtime_init+0xe4>)
10001956:	4e16      	ldr	r6, [pc, #88]	@ (100019b0 <runtime_init+0xe8>)
10001958:	42b4      	cmp	r4, r6
1000195a:	d208      	bcs.n	1000196e <runtime_init+0xa6>
1000195c:	3e01      	subs	r6, #1
1000195e:	1b36      	subs	r6, r6, r4
10001960:	08b6      	lsrs	r6, r6, #2
10001962:	cc08      	ldmia	r4!, {r3}
10001964:	4798      	blx	r3
10001966:	002b      	movs	r3, r5
10001968:	3501      	adds	r5, #1
1000196a:	429e      	cmp	r6, r3
1000196c:	d1f9      	bne.n	10001962 <runtime_init+0x9a>
1000196e:	bd70      	pop	{r4, r5, r6, pc}
10001970:	f7ff f876 	bl	10000a60 <mutex_init>
10001974:	3408      	adds	r4, #8
10001976:	e7d4      	b.n	10001922 <runtime_init+0x5a>
10001978:	4000e000 	.word	0x4000e000
1000197c:	fefbcdbf 	.word	0xfefbcdbf
10001980:	003c7ffe 	.word	0x003c7ffe
10001984:	4000f000 	.word	0x4000f000
10001988:	4000c000 	.word	0x4000c000
1000198c:	200012ec 	.word	0x200012ec
10001990:	200012fc 	.word	0x200012fc
10001994:	01ffffff 	.word	0x01ffffff
10001998:	4001f000 	.word	0x4001f000
1000199c:	200012dc 	.word	0x200012dc
100019a0:	200012ec 	.word	0x200012ec
100019a4:	20000000 	.word	0x20000000
100019a8:	e000ed00 	.word	0xe000ed00
100019ac:	200012fc 	.word	0x200012fc
100019b0:	20001304 	.word	0x20001304

100019b4 <_exit>:
100019b4:	be00      	bkpt	0x0000
100019b6:	e7fd      	b.n	100019b4 <_exit>

100019b8 <_sbrk>:
100019b8:	4a09      	ldr	r2, [pc, #36]	@ (100019e0 <_sbrk+0x28>)
100019ba:	0003      	movs	r3, r0
100019bc:	6810      	ldr	r0, [r2, #0]
100019be:	2800      	cmp	r0, #0
100019c0:	d005      	beq.n	100019ce <_sbrk+0x16>
100019c2:	4908      	ldr	r1, [pc, #32]	@ (100019e4 <_sbrk+0x2c>)
100019c4:	18c3      	adds	r3, r0, r3
100019c6:	428b      	cmp	r3, r1
100019c8:	d807      	bhi.n	100019da <_sbrk+0x22>
100019ca:	6013      	str	r3, [r2, #0]
100019cc:	4770      	bx	lr
100019ce:	4806      	ldr	r0, [pc, #24]	@ (100019e8 <_sbrk+0x30>)
100019d0:	4904      	ldr	r1, [pc, #16]	@ (100019e4 <_sbrk+0x2c>)
100019d2:	18c3      	adds	r3, r0, r3
100019d4:	6010      	str	r0, [r2, #0]
100019d6:	428b      	cmp	r3, r1
100019d8:	d9f7      	bls.n	100019ca <_sbrk+0x12>
100019da:	2001      	movs	r0, #1
100019dc:	4240      	negs	r0, r0
100019de:	e7f5      	b.n	100019cc <_sbrk+0x14>
100019e0:	2000205c 	.word	0x2000205c
100019e4:	20040000 	.word	0x20040000
100019e8:	200150b0 	.word	0x200150b0

100019ec <exit>:
100019ec:	b510      	push	{r4, lr}
100019ee:	f7ff ffe1 	bl	100019b4 <_exit>
100019f2:	46c0      	nop			@ (mov r8, r8)

100019f4 <panic>:
100019f4:	b40f      	push	{r0, r1, r2, r3}
100019f6:	b500      	push	{lr}
100019f8:	4808      	ldr	r0, [pc, #32]	@ (10001a1c <panic+0x28>)
100019fa:	b083      	sub	sp, #12
100019fc:	f000 fc72 	bl	100022e4 <__wrap_puts>
10001a00:	9b04      	ldr	r3, [sp, #16]
10001a02:	2b00      	cmp	r3, #0
10001a04:	d007      	beq.n	10001a16 <panic+0x22>
10001a06:	a905      	add	r1, sp, #20
10001a08:	0018      	movs	r0, r3
10001a0a:	9101      	str	r1, [sp, #4]
10001a0c:	f000 f818 	bl	10001a40 <weak_raw_vprintf>
10001a10:	4803      	ldr	r0, [pc, #12]	@ (10001a20 <panic+0x2c>)
10001a12:	f000 fc67 	bl	100022e4 <__wrap_puts>
10001a16:	2001      	movs	r0, #1
10001a18:	f7ff ffcc 	bl	100019b4 <_exit>
10001a1c:	10003b18 	.word	0x10003b18
10001a20:	10003b28 	.word	0x10003b28

10001a24 <hard_assertion_failure>:
10001a24:	b510      	push	{r4, lr}
10001a26:	4801      	ldr	r0, [pc, #4]	@ (10001a2c <hard_assertion_failure+0x8>)
10001a28:	f7ff ffe4 	bl	100019f4 <panic>
10001a2c:	10003b2c 	.word	0x10003b2c

10001a30 <_out_char>:
10001a30:	b510      	push	{r4, lr}
10001a32:	2800      	cmp	r0, #0
10001a34:	d100      	bne.n	10001a38 <_out_char+0x8>
10001a36:	bd10      	pop	{r4, pc}
10001a38:	f000 fc46 	bl	100022c8 <__wrap_putchar>
10001a3c:	e7fb      	b.n	10001a36 <_out_char+0x6>
10001a3e:	46c0      	nop			@ (mov r8, r8)

10001a40 <weak_raw_vprintf>:
10001a40:	b510      	push	{r4, lr}
10001a42:	4a09      	ldr	r2, [pc, #36]	@ (10001a68 <weak_raw_vprintf+0x28>)
10001a44:	0003      	movs	r3, r0
10001a46:	6814      	ldr	r4, [r2, #0]
10001a48:	b084      	sub	sp, #16
10001a4a:	2c00      	cmp	r4, #0
10001a4c:	d008      	beq.n	10001a60 <weak_raw_vprintf+0x20>
10001a4e:	2201      	movs	r2, #1
10001a50:	9100      	str	r1, [sp, #0]
10001a52:	4806      	ldr	r0, [pc, #24]	@ (10001a6c <weak_raw_vprintf+0x2c>)
10001a54:	4252      	negs	r2, r2
10001a56:	a903      	add	r1, sp, #12
10001a58:	47a0      	blx	r4
10001a5a:	2001      	movs	r0, #1
10001a5c:	b004      	add	sp, #16
10001a5e:	bd10      	pop	{r4, pc}
10001a60:	f000 fc40 	bl	100022e4 <__wrap_puts>
10001a64:	2000      	movs	r0, #0
10001a66:	e7f9      	b.n	10001a5c <weak_raw_vprintf+0x1c>
10001a68:	20002060 	.word	0x20002060
10001a6c:	10001a31 	.word	0x10001a31

10001a70 <__aeabi_bits_init>:
10001a70:	4801      	ldr	r0, [pc, #4]	@ (10001a78 <__aeabi_bits_init+0x8>)
10001a72:	2104      	movs	r1, #4
10001a74:	4b01      	ldr	r3, [pc, #4]	@ (10001a7c <__aeabi_bits_init+0xc>)
10001a76:	4718      	bx	r3
10001a78:	20000d80 	.word	0x20000d80
10001a7c:	10001aad 	.word	0x10001aad

10001a80 <__wrap___ctzsi2>:
10001a80:	4b01      	ldr	r3, [pc, #4]	@ (10001a88 <__wrap___ctzsi2+0x8>)
10001a82:	689b      	ldr	r3, [r3, #8]
10001a84:	4718      	bx	r3
10001a86:	0000      	.short	0x0000
10001a88:	20000d80 	.word	0x20000d80

10001a8c <rom_func_lookup>:
10001a8c:	2314      	movs	r3, #20
10001a8e:	b510      	push	{r4, lr}
10001a90:	0001      	movs	r1, r0
10001a92:	8818      	ldrh	r0, [r3, #0]
10001a94:	3304      	adds	r3, #4
10001a96:	881b      	ldrh	r3, [r3, #0]
10001a98:	4798      	blx	r3
10001a9a:	bd10      	pop	{r4, pc}

10001a9c <rom_data_lookup>:
10001a9c:	2316      	movs	r3, #22
10001a9e:	b510      	push	{r4, lr}
10001aa0:	0001      	movs	r1, r0
10001aa2:	8818      	ldrh	r0, [r3, #0]
10001aa4:	3302      	adds	r3, #2
10001aa6:	881b      	ldrh	r3, [r3, #0]
10001aa8:	4798      	blx	r3
10001aaa:	bd10      	pop	{r4, pc}

10001aac <rom_funcs_lookup>:
10001aac:	b5f8      	push	{r3, r4, r5, r6, r7, lr}
10001aae:	4647      	mov	r7, r8
10001ab0:	46ce      	mov	lr, r9
10001ab2:	b580      	push	{r7, lr}
10001ab4:	1e0f      	subs	r7, r1, #0
10001ab6:	d019      	beq.n	10001aec <rom_funcs_lookup+0x40>
10001ab8:	2314      	movs	r3, #20
10001aba:	4699      	mov	r9, r3
10001abc:	3304      	adds	r3, #4
10001abe:	0004      	movs	r4, r0
10001ac0:	2500      	movs	r5, #0
10001ac2:	2601      	movs	r6, #1
10001ac4:	4698      	mov	r8, r3
10001ac6:	464b      	mov	r3, r9
10001ac8:	8818      	ldrh	r0, [r3, #0]
10001aca:	4643      	mov	r3, r8
10001acc:	6821      	ldr	r1, [r4, #0]
10001ace:	881b      	ldrh	r3, [r3, #0]
10001ad0:	4798      	blx	r3
10001ad2:	c401      	stmia	r4!, {r0}
10001ad4:	1e43      	subs	r3, r0, #1
10001ad6:	4198      	sbcs	r0, r3
10001ad8:	3501      	adds	r5, #1
10001ada:	4240      	negs	r0, r0
10001adc:	4006      	ands	r6, r0
10001ade:	42af      	cmp	r7, r5
10001ae0:	d1f1      	bne.n	10001ac6 <rom_funcs_lookup+0x1a>
10001ae2:	0030      	movs	r0, r6
10001ae4:	bcc0      	pop	{r6, r7}
10001ae6:	46b9      	mov	r9, r7
10001ae8:	46b0      	mov	r8, r6
10001aea:	bdf8      	pop	{r3, r4, r5, r6, r7, pc}
10001aec:	2601      	movs	r6, #1
10001aee:	e7f8      	b.n	10001ae2 <rom_funcs_lookup+0x36>

10001af0 <__wrap___aeabi_uidiv>:
10001af0:	4a11      	ldr	r2, [pc, #68]	@ (10001b38 <divmod_u32u32_savestate+0x18>)
10001af2:	6f93      	ldr	r3, [r2, #120]	@ 0x78
10001af4:	089b      	lsrs	r3, r3, #2
10001af6:	d213      	bcs.n	10001b20 <divmod_u32u32_savestate>

10001af8 <divmod_u32u32_unsafe>:
10001af8:	6610      	str	r0, [r2, #96]	@ 0x60
10001afa:	6651      	str	r1, [r2, #100]	@ 0x64
10001afc:	2900      	cmp	r1, #0
10001afe:	d005      	beq.n	10001b0c <divmod_u32u32_unsafe+0x14>
10001b00:	e7ff      	b.n	10001b02 <divmod_u32u32_unsafe+0xa>
10001b02:	e7ff      	b.n	10001b04 <divmod_u32u32_unsafe+0xc>
10001b04:	e7ff      	b.n	10001b06 <divmod_u32u32_unsafe+0xe>
10001b06:	6f51      	ldr	r1, [r2, #116]	@ 0x74
10001b08:	6f10      	ldr	r0, [r2, #112]	@ 0x70
10001b0a:	4770      	bx	lr
10001b0c:	b504      	push	{r2, lr}
10001b0e:	2800      	cmp	r0, #0
10001b10:	d001      	beq.n	10001b16 <divmod_u32u32_unsafe+0x1e>
10001b12:	2000      	movs	r0, #0
10001b14:	43c0      	mvns	r0, r0
10001b16:	f001 ffbb 	bl	10003a90 <____aeabi_idiv0_veneer>
10001b1a:	2100      	movs	r1, #0
10001b1c:	bd04      	pop	{r2, pc}
10001b1e:	46c0      	nop			@ (mov r8, r8)

10001b20 <divmod_u32u32_savestate>:
10001b20:	b5f0      	push	{r4, r5, r6, r7, lr}
10001b22:	6e14      	ldr	r4, [r2, #96]	@ 0x60
10001b24:	6e55      	ldr	r5, [r2, #100]	@ 0x64
10001b26:	6f57      	ldr	r7, [r2, #116]	@ 0x74
10001b28:	6f16      	ldr	r6, [r2, #112]	@ 0x70
10001b2a:	f7ff ffe5 	bl	10001af8 <divmod_u32u32_unsafe>
10001b2e:	6614      	str	r4, [r2, #96]	@ 0x60
10001b30:	6655      	str	r5, [r2, #100]	@ 0x64
10001b32:	6757      	str	r7, [r2, #116]	@ 0x74
10001b34:	6716      	str	r6, [r2, #112]	@ 0x70
10001b36:	bdf0      	pop	{r4, r5, r6, r7, pc}
10001b38:	d0000000 	.word	0xd0000000

10001b3c <__wrap___aeabi_ldivmod>:
10001b3c:	4694      	mov	ip, r2
10001b3e:	4a4a      	ldr	r2, [pc, #296]	@ (10001c68 <udiv0+0x1a>)
10001b40:	6f92      	ldr	r2, [r2, #120]	@ 0x78
10001b42:	0892      	lsrs	r2, r2, #2
10001b44:	4662      	mov	r2, ip
10001b46:	d201      	bcs.n	10001b4c <divmod_s64s64_savestate>
10001b48:	e028      	b.n	10001b9c <divmod_s64s64_unsafe>
10001b4a:	46c0      	nop			@ (mov r8, r8)

10001b4c <divmod_s64s64_savestate>:
10001b4c:	b5f0      	push	{r4, r5, r6, r7, lr}
10001b4e:	4e46      	ldr	r6, [pc, #280]	@ (10001c68 <udiv0+0x1a>)
10001b50:	6e34      	ldr	r4, [r6, #96]	@ 0x60
10001b52:	6e75      	ldr	r5, [r6, #100]	@ 0x64
10001b54:	6f77      	ldr	r7, [r6, #116]	@ 0x74
10001b56:	6f36      	ldr	r6, [r6, #112]	@ 0x70
10001b58:	f000 f820 	bl	10001b9c <divmod_s64s64_unsafe>
10001b5c:	4694      	mov	ip, r2
10001b5e:	4a42      	ldr	r2, [pc, #264]	@ (10001c68 <udiv0+0x1a>)
10001b60:	6614      	str	r4, [r2, #96]	@ 0x60
10001b62:	6655      	str	r5, [r2, #100]	@ 0x64
10001b64:	6757      	str	r7, [r2, #116]	@ 0x74
10001b66:	6716      	str	r6, [r2, #112]	@ 0x70
10001b68:	4662      	mov	r2, ip
10001b6a:	bdf0      	pop	{r4, r5, r6, r7, pc}

10001b6c <__wrap___aeabi_uldivmod>:
10001b6c:	4694      	mov	ip, r2
10001b6e:	4a3e      	ldr	r2, [pc, #248]	@ (10001c68 <udiv0+0x1a>)
10001b70:	6f92      	ldr	r2, [r2, #120]	@ 0x78
10001b72:	0892      	lsrs	r2, r2, #2
10001b74:	4662      	mov	r2, ip
10001b76:	d201      	bcs.n	10001b7c <divmod_u64u64_savestate>
10001b78:	e054      	b.n	10001c24 <divmod_u64u64_unsafe>
10001b7a:	46c0      	nop			@ (mov r8, r8)

10001b7c <divmod_u64u64_savestate>:
10001b7c:	b5f0      	push	{r4, r5, r6, r7, lr}
10001b7e:	4e3a      	ldr	r6, [pc, #232]	@ (10001c68 <udiv0+0x1a>)
10001b80:	6e34      	ldr	r4, [r6, #96]	@ 0x60
10001b82:	6e75      	ldr	r5, [r6, #100]	@ 0x64
10001b84:	6f77      	ldr	r7, [r6, #116]	@ 0x74
10001b86:	6f36      	ldr	r6, [r6, #112]	@ 0x70
10001b88:	f000 f84c 	bl	10001c24 <divmod_u64u64_unsafe>
10001b8c:	4694      	mov	ip, r2
10001b8e:	4a36      	ldr	r2, [pc, #216]	@ (10001c68 <udiv0+0x1a>)
10001b90:	6614      	str	r4, [r2, #96]	@ 0x60
10001b92:	6655      	str	r5, [r2, #100]	@ 0x64
10001b94:	6757      	str	r7, [r2, #116]	@ 0x74
10001b96:	6716      	str	r6, [r2, #112]	@ 0x70
10001b98:	4662      	mov	r2, ip
10001b9a:	bdf0      	pop	{r4, r5, r6, r7, pc}

10001b9c <divmod_s64s64_unsafe>:
10001b9c:	2b00      	cmp	r3, #0
10001b9e:	db24      	blt.n	10001bea <l42_1+0x26>
10001ba0:	d011      	beq.n	10001bc6 <l42_1+0x2>
10001ba2:	2900      	cmp	r1, #0
10001ba4:	da3e      	bge.n	10001c24 <divmod_u64u64_unsafe>
10001ba6:	b500      	push	{lr}
10001ba8:	43c9      	mvns	r1, r1
10001baa:	4240      	negs	r0, r0
10001bac:	d100      	bne.n	10001bb0 <l40_1>
10001bae:	3101      	adds	r1, #1

10001bb0 <l40_1>:
10001bb0:	f000 f838 	bl	10001c24 <divmod_u64u64_unsafe>
10001bb4:	43c9      	mvns	r1, r1
10001bb6:	4240      	negs	r0, r0
10001bb8:	d100      	bne.n	10001bbc <l41_1>
10001bba:	3101      	adds	r1, #1

10001bbc <l41_1>:
10001bbc:	43db      	mvns	r3, r3
10001bbe:	4252      	negs	r2, r2
10001bc0:	d100      	bne.n	10001bc4 <l42_1>
10001bc2:	3301      	adds	r3, #1

10001bc4 <l42_1>:
10001bc4:	bd00      	pop	{pc}
10001bc6:	2a00      	cmp	r2, #0
10001bc8:	d1eb      	bne.n	10001ba2 <divmod_s64s64_unsafe+0x6>
10001bca:	2800      	cmp	r0, #0
10001bcc:	d101      	bne.n	10001bd2 <l42_1+0xe>
10001bce:	2900      	cmp	r1, #0
10001bd0:	d005      	beq.n	10001bde <l42_1+0x1a>
10001bd2:	2000      	movs	r0, #0
10001bd4:	0fc9      	lsrs	r1, r1, #31
10001bd6:	07c9      	lsls	r1, r1, #31
10001bd8:	d101      	bne.n	10001bde <l42_1+0x1a>
10001bda:	43c0      	mvns	r0, r0
10001bdc:	0841      	lsrs	r1, r0, #1
10001bde:	b500      	push	{lr}
10001be0:	f001 ff46 	bl	10003a70 <____aeabi_ldiv0_veneer>
10001be4:	2200      	movs	r2, #0
10001be6:	2300      	movs	r3, #0
10001be8:	bd00      	pop	{pc}
10001bea:	b500      	push	{lr}
10001bec:	2900      	cmp	r1, #0
10001bee:	db0a      	blt.n	10001c06 <l44_1+0x2>
10001bf0:	43db      	mvns	r3, r3
10001bf2:	4252      	negs	r2, r2
10001bf4:	d100      	bne.n	10001bf8 <l43_1>
10001bf6:	3301      	adds	r3, #1

10001bf8 <l43_1>:
10001bf8:	f000 f814 	bl	10001c24 <divmod_u64u64_unsafe>
10001bfc:	43c9      	mvns	r1, r1
10001bfe:	4240      	negs	r0, r0
10001c00:	d100      	bne.n	10001c04 <l44_1>
10001c02:	3101      	adds	r1, #1

10001c04 <l44_1>:
10001c04:	bd00      	pop	{pc}
10001c06:	43c9      	mvns	r1, r1
10001c08:	4240      	negs	r0, r0
10001c0a:	d100      	bne.n	10001c0e <l45_1>
10001c0c:	3101      	adds	r1, #1

10001c0e <l45_1>:
10001c0e:	43db      	mvns	r3, r3
10001c10:	4252      	negs	r2, r2
10001c12:	d100      	bne.n	10001c16 <l46_1>
10001c14:	3301      	adds	r3, #1

10001c16 <l46_1>:
10001c16:	f000 f805 	bl	10001c24 <divmod_u64u64_unsafe>
10001c1a:	43db      	mvns	r3, r3
10001c1c:	4252      	negs	r2, r2
10001c1e:	d100      	bne.n	10001c22 <l47_1>
10001c20:	3301      	adds	r3, #1

10001c22 <l47_1>:
10001c22:	bd00      	pop	{pc}

10001c24 <divmod_u64u64_unsafe>:
10001c24:	2900      	cmp	r1, #0
10001c26:	d123      	bne.n	10001c70 <y64>
10001c28:	2b00      	cmp	r3, #0
10001c2a:	d118      	bne.n	10001c5e <udiv0+0x10>
10001c2c:	2a00      	cmp	r2, #0
10001c2e:	d00c      	beq.n	10001c4a <divmod_u64u64_unsafe+0x26>
10001c30:	46bc      	mov	ip, r7
10001c32:	4f0d      	ldr	r7, [pc, #52]	@ (10001c68 <udiv0+0x1a>)
10001c34:	6638      	str	r0, [r7, #96]	@ 0x60
10001c36:	667a      	str	r2, [r7, #100]	@ 0x64
10001c38:	2100      	movs	r1, #0
10001c3a:	2300      	movs	r3, #0
10001c3c:	e7ff      	b.n	10001c3e <divmod_u64u64_unsafe+0x1a>
10001c3e:	e7ff      	b.n	10001c40 <divmod_u64u64_unsafe+0x1c>
10001c40:	e7ff      	b.n	10001c42 <divmod_u64u64_unsafe+0x1e>
10001c42:	6f7a      	ldr	r2, [r7, #116]	@ 0x74
10001c44:	6f38      	ldr	r0, [r7, #112]	@ 0x70
10001c46:	4667      	mov	r7, ip
10001c48:	4770      	bx	lr
10001c4a:	2800      	cmp	r0, #0
10001c4c:	d001      	beq.n	10001c52 <udiv0+0x4>

10001c4e <udiv0>:
10001c4e:	4807      	ldr	r0, [pc, #28]	@ (10001c6c <udiv0+0x1e>)
10001c50:	0001      	movs	r1, r0
10001c52:	b500      	push	{lr}
10001c54:	f001 ff0c 	bl	10003a70 <____aeabi_ldiv0_veneer>
10001c58:	2200      	movs	r2, #0
10001c5a:	2300      	movs	r3, #0
10001c5c:	bd00      	pop	{pc}
10001c5e:	0002      	movs	r2, r0
10001c60:	000b      	movs	r3, r1
10001c62:	2000      	movs	r0, #0
10001c64:	2100      	movs	r1, #0
10001c66:	4770      	bx	lr
10001c68:	d0000000 	.word	0xd0000000
10001c6c:	ffffffff 	.word	0xffffffff

10001c70 <y64>:
10001c70:	2b00      	cmp	r3, #0
10001c72:	d000      	beq.n	10001c76 <y64+0x6>
10001c74:	e0bf      	b.n	10001df6 <y64_x48>
10001c76:	0c13      	lsrs	r3, r2, #16
10001c78:	d128      	bne.n	10001ccc <y64_x32>
10001c7a:	2a00      	cmp	r2, #0
10001c7c:	d0e7      	beq.n	10001c4e <udiv0>
10001c7e:	b480      	push	{r7}
10001c80:	4f11      	ldr	r7, [pc, #68]	@ (10001cc8 <y64+0x58>)
10001c82:	6639      	str	r1, [r7, #96]	@ 0x60
10001c84:	667a      	str	r2, [r7, #100]	@ 0x64
10001c86:	e7ff      	b.n	10001c88 <y64+0x18>
10001c88:	e7ff      	b.n	10001c8a <y64+0x1a>
10001c8a:	b430      	push	{r4, r5}
10001c8c:	0c04      	lsrs	r4, r0, #16
10001c8e:	6f7b      	ldr	r3, [r7, #116]	@ 0x74
10001c90:	6f39      	ldr	r1, [r7, #112]	@ 0x70
10001c92:	041b      	lsls	r3, r3, #16
10001c94:	4323      	orrs	r3, r4
10001c96:	663b      	str	r3, [r7, #96]	@ 0x60
10001c98:	667a      	str	r2, [r7, #100]	@ 0x64
10001c9a:	e7ff      	b.n	10001c9c <y64+0x2c>
10001c9c:	e7ff      	b.n	10001c9e <y64+0x2e>
10001c9e:	e7ff      	b.n	10001ca0 <y64+0x30>
10001ca0:	46c0      	nop			@ (mov r8, r8)
10001ca2:	b284      	uxth	r4, r0
10001ca4:	6f7b      	ldr	r3, [r7, #116]	@ 0x74
10001ca6:	6f3d      	ldr	r5, [r7, #112]	@ 0x70
10001ca8:	041b      	lsls	r3, r3, #16
10001caa:	4323      	orrs	r3, r4
10001cac:	663b      	str	r3, [r7, #96]	@ 0x60
10001cae:	667a      	str	r2, [r7, #100]	@ 0x64
10001cb0:	e7ff      	b.n	10001cb2 <y64+0x42>
10001cb2:	e7ff      	b.n	10001cb4 <y64+0x44>
10001cb4:	46c0      	nop			@ (mov r8, r8)
10001cb6:	2300      	movs	r3, #0
10001cb8:	042c      	lsls	r4, r5, #16
10001cba:	0c2d      	lsrs	r5, r5, #16
10001cbc:	6f7a      	ldr	r2, [r7, #116]	@ 0x74
10001cbe:	6f38      	ldr	r0, [r7, #112]	@ 0x70
10001cc0:	1900      	adds	r0, r0, r4
10001cc2:	4169      	adcs	r1, r5
10001cc4:	bcb0      	pop	{r4, r5, r7}
10001cc6:	4770      	bx	lr
10001cc8:	d0000000 	.word	0xd0000000

10001ccc <y64_x32>:
10001ccc:	b5f0      	push	{r4, r5, r6, r7, lr}
10001cce:	4694      	mov	ip, r2
10001cd0:	2500      	movs	r5, #0
10001cd2:	0e14      	lsrs	r4, r2, #24
10001cd4:	d101      	bne.n	10001cda <y64_x32+0xe>
10001cd6:	0212      	lsls	r2, r2, #8
10001cd8:	3508      	adds	r5, #8
10001cda:	0f14      	lsrs	r4, r2, #28
10001cdc:	d101      	bne.n	10001ce2 <y64_x32+0x16>
10001cde:	0112      	lsls	r2, r2, #4
10001ce0:	3504      	adds	r5, #4
10001ce2:	0f94      	lsrs	r4, r2, #30
10001ce4:	d101      	bne.n	10001cea <y64_x32+0x1e>
10001ce6:	0092      	lsls	r2, r2, #2
10001ce8:	3502      	adds	r5, #2
10001cea:	0fd4      	lsrs	r4, r2, #31
10001cec:	d101      	bne.n	10001cf2 <y64_x32+0x26>
10001cee:	0052      	lsls	r2, r2, #1
10001cf0:	3501      	adds	r5, #1
10001cf2:	0bd4      	lsrs	r4, r2, #15
10001cf4:	3401      	adds	r4, #1
10001cf6:	4f25      	ldr	r7, [pc, #148]	@ (10001d8c <y64_x32+0xc0>)
10001cf8:	667c      	str	r4, [r7, #100]	@ 0x64
10001cfa:	4c25      	ldr	r4, [pc, #148]	@ (10001d90 <y64_x32+0xc4>)
10001cfc:	663c      	str	r4, [r7, #96]	@ 0x60
10001cfe:	0c0e      	lsrs	r6, r1, #16
10001d00:	b293      	uxth	r3, r2
10001d02:	e7ff      	b.n	10001d04 <y64_x32+0x38>
10001d04:	e7ff      	b.n	10001d06 <y64_x32+0x3a>
10001d06:	e7ff      	b.n	10001d08 <y64_x32+0x3c>
10001d08:	6f3c      	ldr	r4, [r7, #112]	@ 0x70
10001d0a:	4366      	muls	r6, r4
10001d0c:	0c36      	lsrs	r6, r6, #16
10001d0e:	0377      	lsls	r7, r6, #13
10001d10:	46be      	mov	lr, r7
10001d12:	4373      	muls	r3, r6
10001d14:	0bdf      	lsrs	r7, r3, #15
10001d16:	045b      	lsls	r3, r3, #17
10001d18:	1ac0      	subs	r0, r0, r3
10001d1a:	41b9      	sbcs	r1, r7
10001d1c:	0c13      	lsrs	r3, r2, #16
10001d1e:	4373      	muls	r3, r6
10001d20:	18db      	adds	r3, r3, r3
10001d22:	1ac9      	subs	r1, r1, r3
10001d24:	08ce      	lsrs	r6, r1, #3
10001d26:	4366      	muls	r6, r4
10001d28:	0c36      	lsrs	r6, r6, #16
10001d2a:	44b6      	add	lr, r6
10001d2c:	b293      	uxth	r3, r2
10001d2e:	4373      	muls	r3, r6
10001d30:	0f1f      	lsrs	r7, r3, #28
10001d32:	011b      	lsls	r3, r3, #4
10001d34:	1ac0      	subs	r0, r0, r3
10001d36:	41b9      	sbcs	r1, r7
10001d38:	0c13      	lsrs	r3, r2, #16
10001d3a:	4373      	muls	r3, r6
10001d3c:	0b1f      	lsrs	r7, r3, #12
10001d3e:	051b      	lsls	r3, r3, #20
10001d40:	1ac0      	subs	r0, r0, r3
10001d42:	41b9      	sbcs	r1, r7
10001d44:	0d86      	lsrs	r6, r0, #22
10001d46:	028f      	lsls	r7, r1, #10
10001d48:	433e      	orrs	r6, r7
10001d4a:	4366      	muls	r6, r4
10001d4c:	0c36      	lsrs	r6, r6, #16
10001d4e:	2d09      	cmp	r5, #9
10001d50:	db24      	blt.n	10001d9c <last0>
10001d52:	0a52      	lsrs	r2, r2, #9
10001d54:	4372      	muls	r2, r6
10001d56:	1a80      	subs	r0, r0, r2
10001d58:	0377      	lsls	r7, r6, #13
10001d5a:	0a46      	lsrs	r6, r0, #9
10001d5c:	4366      	muls	r6, r4
10001d5e:	0c36      	lsrs	r6, r6, #16
10001d60:	2316      	movs	r3, #22
10001d62:	1b5b      	subs	r3, r3, r5
10001d64:	40de      	lsrs	r6, r3
10001d66:	40df      	lsrs	r7, r3
10001d68:	19bf      	adds	r7, r7, r6
10001d6a:	4664      	mov	r4, ip
10001d6c:	4366      	muls	r6, r4
10001d6e:	1b82      	subs	r2, r0, r6
10001d70:	4670      	mov	r0, lr
10001d72:	3504      	adds	r5, #4
10001d74:	3306      	adds	r3, #6
10001d76:	0001      	movs	r1, r0
10001d78:	40d9      	lsrs	r1, r3
10001d7a:	40a8      	lsls	r0, r5
10001d7c:	19c0      	adds	r0, r0, r7
10001d7e:	d300      	bcc.n	10001d82 <y64_x32+0xb6>
10001d80:	3101      	adds	r1, #1
10001d82:	42a2      	cmp	r2, r4
10001d84:	d206      	bcs.n	10001d94 <y64_x32+0xc8>
10001d86:	2300      	movs	r3, #0
10001d88:	bdf0      	pop	{r4, r5, r6, r7, pc}
10001d8a:	0000      	.short	0x0000
10001d8c:	d0000000 	.word	0xd0000000
10001d90:	ffffffff 	.word	0xffffffff
10001d94:	1b12      	subs	r2, r2, r4
10001d96:	3001      	adds	r0, #1
10001d98:	d3f3      	bcc.n	10001d82 <y64_x32+0xb6>
10001d9a:	e7f1      	b.n	10001d80 <y64_x32+0xb4>

10001d9c <last0>:
10001d9c:	2709      	movs	r7, #9
10001d9e:	1b7f      	subs	r7, r7, r5
10001da0:	40fe      	lsrs	r6, r7
10001da2:	4664      	mov	r4, ip
10001da4:	b2a2      	uxth	r2, r4
10001da6:	4372      	muls	r2, r6
10001da8:	1a80      	subs	r0, r0, r2
10001daa:	d200      	bcs.n	10001dae <last0+0x12>
10001dac:	3901      	subs	r1, #1
10001dae:	0c22      	lsrs	r2, r4, #16
10001db0:	4372      	muls	r2, r6
10001db2:	0c13      	lsrs	r3, r2, #16
10001db4:	0412      	lsls	r2, r2, #16
10001db6:	1a82      	subs	r2, r0, r2
10001db8:	4199      	sbcs	r1, r3
10001dba:	000b      	movs	r3, r1
10001dbc:	4670      	mov	r0, lr
10001dbe:	3504      	adds	r5, #4
10001dc0:	3713      	adds	r7, #19
10001dc2:	0001      	movs	r1, r0
10001dc4:	40f9      	lsrs	r1, r7
10001dc6:	40a8      	lsls	r0, r5
10001dc8:	1980      	adds	r0, r0, r6
10001dca:	d300      	bcc.n	10001dce <last0+0x32>
10001dcc:	3101      	adds	r1, #1
10001dce:	2b00      	cmp	r3, #0
10001dd0:	d102      	bne.n	10001dd8 <last0+0x3c>
10001dd2:	42a2      	cmp	r2, r4
10001dd4:	d20a      	bcs.n	10001dec <last0+0x50>
10001dd6:	bdf0      	pop	{r4, r5, r6, r7, pc}
10001dd8:	3001      	adds	r0, #1
10001dda:	d300      	bcc.n	10001dde <last0+0x42>
10001ddc:	3101      	adds	r1, #1
10001dde:	1b12      	subs	r2, r2, r4
10001de0:	d2fa      	bcs.n	10001dd8 <last0+0x3c>
10001de2:	3b01      	subs	r3, #1
10001de4:	d1f8      	bne.n	10001dd8 <last0+0x3c>
10001de6:	42a2      	cmp	r2, r4
10001de8:	d200      	bcs.n	10001dec <last0+0x50>
10001dea:	bdf0      	pop	{r4, r5, r6, r7, pc}
10001dec:	3001      	adds	r0, #1
10001dee:	d300      	bcc.n	10001df2 <last0+0x56>
10001df0:	3101      	adds	r1, #1
10001df2:	1b12      	subs	r2, r2, r4
10001df4:	e7f7      	b.n	10001de6 <last0+0x4a>

10001df6 <y64_x48>:
10001df6:	b5f0      	push	{r4, r5, r6, r7, lr}
10001df8:	0c1c      	lsrs	r4, r3, #16
10001dfa:	d000      	beq.n	10001dfe <y64_x48+0x8>
10001dfc:	e080      	b.n	10001f00 <y64_x64>
10001dfe:	b40c      	push	{r2, r3}
10001e00:	2500      	movs	r5, #0
10001e02:	0a1c      	lsrs	r4, r3, #8
10001e04:	d104      	bne.n	10001e10 <y64_x48+0x1a>
10001e06:	021b      	lsls	r3, r3, #8
10001e08:	0e16      	lsrs	r6, r2, #24
10001e0a:	4333      	orrs	r3, r6
10001e0c:	0212      	lsls	r2, r2, #8
10001e0e:	3508      	adds	r5, #8
10001e10:	0b1c      	lsrs	r4, r3, #12
10001e12:	d104      	bne.n	10001e1e <y64_x48+0x28>
10001e14:	011b      	lsls	r3, r3, #4
10001e16:	0f16      	lsrs	r6, r2, #28
10001e18:	4333      	orrs	r3, r6
10001e1a:	0112      	lsls	r2, r2, #4
10001e1c:	3504      	adds	r5, #4
10001e1e:	0b9c      	lsrs	r4, r3, #14
10001e20:	d104      	bne.n	10001e2c <y64_x48+0x36>
10001e22:	009b      	lsls	r3, r3, #2
10001e24:	0f96      	lsrs	r6, r2, #30
10001e26:	4333      	orrs	r3, r6
10001e28:	0092      	lsls	r2, r2, #2
10001e2a:	3502      	adds	r5, #2
10001e2c:	0bdc      	lsrs	r4, r3, #15
10001e2e:	d102      	bne.n	10001e36 <y64_x48+0x40>
10001e30:	1892      	adds	r2, r2, r2
10001e32:	415b      	adcs	r3, r3
10001e34:	3501      	adds	r5, #1
10001e36:	001c      	movs	r4, r3
10001e38:	1897      	adds	r7, r2, r2
10001e3a:	4164      	adcs	r4, r4
10001e3c:	3401      	adds	r4, #1
10001e3e:	4f46      	ldr	r7, [pc, #280]	@ (10001f58 <y64_x64+0x58>)
10001e40:	667c      	str	r4, [r7, #100]	@ 0x64
10001e42:	4c46      	ldr	r4, [pc, #280]	@ (10001f5c <y64_x64+0x5c>)
10001e44:	663c      	str	r4, [r7, #96]	@ 0x60
10001e46:	0c0e      	lsrs	r6, r1, #16
10001e48:	e7ff      	b.n	10001e4a <y64_x48+0x54>
10001e4a:	e7ff      	b.n	10001e4c <y64_x48+0x56>
10001e4c:	e7ff      	b.n	10001e4e <y64_x48+0x58>
10001e4e:	46c0      	nop			@ (mov r8, r8)
10001e50:	6f3c      	ldr	r4, [r7, #112]	@ 0x70
10001e52:	4366      	muls	r6, r4
10001e54:	0c36      	lsrs	r6, r6, #16
10001e56:	0377      	lsls	r7, r6, #13
10001e58:	46be      	mov	lr, r7
10001e5a:	b297      	uxth	r7, r2
10001e5c:	4377      	muls	r7, r6
10001e5e:	1bc0      	subs	r0, r0, r7
10001e60:	d200      	bcs.n	10001e64 <y64_x48+0x6e>
10001e62:	3901      	subs	r1, #1
10001e64:	1bc0      	subs	r0, r0, r7
10001e66:	d200      	bcs.n	10001e6a <y64_x48+0x74>
10001e68:	3901      	subs	r1, #1
10001e6a:	b29f      	uxth	r7, r3
10001e6c:	4377      	muls	r7, r6
10001e6e:	1bc9      	subs	r1, r1, r7
10001e70:	1bc9      	subs	r1, r1, r7
10001e72:	0c17      	lsrs	r7, r2, #16
10001e74:	4377      	muls	r7, r6
10001e76:	047e      	lsls	r6, r7, #17
10001e78:	0bff      	lsrs	r7, r7, #15
10001e7a:	1b80      	subs	r0, r0, r6
10001e7c:	41b9      	sbcs	r1, r7
10001e7e:	08ce      	lsrs	r6, r1, #3
10001e80:	4366      	muls	r6, r4
10001e82:	0c36      	lsrs	r6, r6, #16
10001e84:	2d0c      	cmp	r5, #12
10001e86:	db33      	blt.n	10001ef0 <last1>
10001e88:	44b6      	add	lr, r6
10001e8a:	0b12      	lsrs	r2, r2, #12
10001e8c:	051f      	lsls	r7, r3, #20
10001e8e:	433a      	orrs	r2, r7
10001e90:	0b1b      	lsrs	r3, r3, #12
10001e92:	b297      	uxth	r7, r2
10001e94:	4377      	muls	r7, r6
10001e96:	1bc0      	subs	r0, r0, r7
10001e98:	d200      	bcs.n	10001e9c <y64_x48+0xa6>
10001e9a:	3901      	subs	r1, #1
10001e9c:	b29f      	uxth	r7, r3
10001e9e:	4377      	muls	r7, r6
10001ea0:	1bc9      	subs	r1, r1, r7
10001ea2:	0c17      	lsrs	r7, r2, #16
10001ea4:	4377      	muls	r7, r6
10001ea6:	043e      	lsls	r6, r7, #16
10001ea8:	0c3f      	lsrs	r7, r7, #16
10001eaa:	1b80      	subs	r0, r0, r6
10001eac:	41b9      	sbcs	r1, r7
10001eae:	0d86      	lsrs	r6, r0, #22
10001eb0:	028f      	lsls	r7, r1, #10
10001eb2:	433e      	orrs	r6, r7
10001eb4:	4366      	muls	r6, r4
10001eb6:	2729      	movs	r7, #41	@ 0x29
10001eb8:	1b7f      	subs	r7, r7, r5
10001eba:	40fe      	lsrs	r6, r7
10001ebc:	3d0c      	subs	r5, #12
10001ebe:	4677      	mov	r7, lr
10001ec0:	40af      	lsls	r7, r5
10001ec2:	19bf      	adds	r7, r7, r6
10001ec4:	bc30      	pop	{r4, r5}
10001ec6:	b2a2      	uxth	r2, r4
10001ec8:	b2ab      	uxth	r3, r5
10001eca:	4372      	muls	r2, r6
10001ecc:	4373      	muls	r3, r6
10001ece:	1a80      	subs	r0, r0, r2
10001ed0:	4199      	sbcs	r1, r3
10001ed2:	0c22      	lsrs	r2, r4, #16
10001ed4:	4372      	muls	r2, r6
10001ed6:	0c13      	lsrs	r3, r2, #16
10001ed8:	0412      	lsls	r2, r2, #16
10001eda:	1a80      	subs	r0, r0, r2
10001edc:	4199      	sbcs	r1, r3
10001ede:	0002      	movs	r2, r0
10001ee0:	000b      	movs	r3, r1
10001ee2:	3701      	adds	r7, #1
10001ee4:	1b00      	subs	r0, r0, r4
10001ee6:	41a9      	sbcs	r1, r5
10001ee8:	d2f9      	bcs.n	10001ede <y64_x48+0xe8>
10001eea:	1e78      	subs	r0, r7, #1
10001eec:	2100      	movs	r1, #0
10001eee:	bdf0      	pop	{r4, r5, r6, r7, pc}

10001ef0 <last1>:
10001ef0:	270c      	movs	r7, #12
10001ef2:	1b7f      	subs	r7, r7, r5
10001ef4:	40fe      	lsrs	r6, r7
10001ef6:	4677      	mov	r7, lr
10001ef8:	0b7f      	lsrs	r7, r7, #13
10001efa:	40af      	lsls	r7, r5
10001efc:	19ff      	adds	r7, r7, r7
10001efe:	e7e0      	b.n	10001ec2 <y64_x48+0xcc>

10001f00 <y64_x64>:
10001f00:	2400      	movs	r4, #0
10001f02:	1c5d      	adds	r5, r3, #1
10001f04:	d007      	beq.n	10001f16 <y64_x64+0x16>
10001f06:	4f14      	ldr	r7, [pc, #80]	@ (10001f58 <y64_x64+0x58>)
10001f08:	667d      	str	r5, [r7, #100]	@ 0x64
10001f0a:	6639      	str	r1, [r7, #96]	@ 0x60
10001f0c:	e7ff      	b.n	10001f0e <y64_x64+0xe>
10001f0e:	e7ff      	b.n	10001f10 <y64_x64+0x10>
10001f10:	e7ff      	b.n	10001f12 <y64_x64+0x12>
10001f12:	e7ff      	b.n	10001f14 <y64_x64+0x14>
10001f14:	6f3c      	ldr	r4, [r7, #112]	@ 0x70
10001f16:	b295      	uxth	r5, r2
10001f18:	b29e      	uxth	r6, r3
10001f1a:	4365      	muls	r5, r4
10001f1c:	4366      	muls	r6, r4
10001f1e:	1b40      	subs	r0, r0, r5
10001f20:	41b1      	sbcs	r1, r6
10001f22:	0c15      	lsrs	r5, r2, #16
10001f24:	0c1e      	lsrs	r6, r3, #16
10001f26:	4365      	muls	r5, r4
10001f28:	4366      	muls	r6, r4
10001f2a:	0436      	lsls	r6, r6, #16
10001f2c:	0c2f      	lsrs	r7, r5, #16
10001f2e:	433e      	orrs	r6, r7
10001f30:	042d      	lsls	r5, r5, #16
10001f32:	1b40      	subs	r0, r0, r5
10001f34:	41b1      	sbcs	r1, r6
10001f36:	4299      	cmp	r1, r3
10001f38:	d204      	bcs.n	10001f44 <y64_x64+0x44>
10001f3a:	0002      	movs	r2, r0
10001f3c:	000b      	movs	r3, r1
10001f3e:	0020      	movs	r0, r4
10001f40:	2100      	movs	r1, #0
10001f42:	bdf0      	pop	{r4, r5, r6, r7, pc}
10001f44:	d101      	bne.n	10001f4a <y64_x64+0x4a>
10001f46:	4290      	cmp	r0, r2
10001f48:	d3f7      	bcc.n	10001f3a <y64_x64+0x3a>
10001f4a:	1a80      	subs	r0, r0, r2
10001f4c:	4199      	sbcs	r1, r3
10001f4e:	3401      	adds	r4, #1
10001f50:	4299      	cmp	r1, r3
10001f52:	d3f2      	bcc.n	10001f3a <y64_x64+0x3a>
10001f54:	e7f6      	b.n	10001f44 <y64_x64+0x44>
10001f56:	0000      	.short	0x0000
10001f58:	d0000000 	.word	0xd0000000
10001f5c:	ffffffff 	.word	0xffffffff

10001f60 <__aeabi_double_init>:
10001f60:	2313      	movs	r3, #19
10001f62:	b570      	push	{r4, r5, r6, lr}
10001f64:	781c      	ldrb	r4, [r3, #0]
10001f66:	2c01      	cmp	r4, #1
10001f68:	d015      	beq.n	10001f96 <__aeabi_double_init+0x36>
10001f6a:	dd10      	ble.n	10001f8e <__aeabi_double_init+0x2e>
10001f6c:	4810      	ldr	r0, [pc, #64]	@ (10001fb0 <__aeabi_double_init+0x50>)
10001f6e:	f7ff fd95 	bl	10001a9c <rom_data_lookup>
10001f72:	4d10      	ldr	r5, [pc, #64]	@ (10001fb4 <__aeabi_double_init+0x54>)
10001f74:	0001      	movs	r1, r0
10001f76:	2280      	movs	r2, #128	@ 0x80
10001f78:	0028      	movs	r0, r5
10001f7a:	f000 f8e3 	bl	10002144 <__wrap___aeabi_memcpy>
10001f7e:	2c02      	cmp	r4, #2
10001f80:	d013      	beq.n	10001faa <__aeabi_double_init+0x4a>
10001f82:	480d      	ldr	r0, [pc, #52]	@ (10001fb8 <__aeabi_double_init+0x58>)
10001f84:	f7ff fd82 	bl	10001a8c <rom_func_lookup>
10001f88:	4b0c      	ldr	r3, [pc, #48]	@ (10001fbc <__aeabi_double_init+0x5c>)
10001f8a:	6018      	str	r0, [r3, #0]
10001f8c:	bd70      	pop	{r4, r5, r6, pc}
10001f8e:	4a0c      	ldr	r2, [pc, #48]	@ (10001fc0 <__aeabi_double_init+0x60>)
10001f90:	4d08      	ldr	r5, [pc, #32]	@ (10001fb4 <__aeabi_double_init+0x54>)
10001f92:	64aa      	str	r2, [r5, #72]	@ 0x48
10001f94:	e7f5      	b.n	10001f82 <__aeabi_double_init+0x22>
10001f96:	4d07      	ldr	r5, [pc, #28]	@ (10001fb4 <__aeabi_double_init+0x54>)
10001f98:	4a09      	ldr	r2, [pc, #36]	@ (10001fc0 <__aeabi_double_init+0x60>)
10001f9a:	0029      	movs	r1, r5
10001f9c:	002b      	movs	r3, r5
10001f9e:	3180      	adds	r1, #128	@ 0x80
10001fa0:	c304      	stmia	r3!, {r2}
10001fa2:	428b      	cmp	r3, r1
10001fa4:	d1fc      	bne.n	10001fa0 <__aeabi_double_init+0x40>
10001fa6:	64aa      	str	r2, [r5, #72]	@ 0x48
10001fa8:	e7eb      	b.n	10001f82 <__aeabi_double_init+0x22>
10001faa:	4a05      	ldr	r2, [pc, #20]	@ (10001fc0 <__aeabi_double_init+0x60>)
10001fac:	64aa      	str	r2, [r5, #72]	@ 0x48
10001fae:	e7e8      	b.n	10001f82 <__aeabi_double_init+0x22>
10001fb0:	00004453 	.word	0x00004453
10001fb4:	20014e90 	.word	0x20014e90
10001fb8:	0000334c 	.word	0x0000334c
10001fbc:	20014f90 	.word	0x20014f90
10001fc0:	10001fc5 	.word	0x10001fc5

10001fc4 <double_table_shim_on_use_helper>:
10001fc4:	b507      	push	{r0, r1, r2, lr}
10001fc6:	4660      	mov	r0, ip
10001fc8:	8801      	ldrh	r1, [r0, #0]
10001fca:	0a0a      	lsrs	r2, r1, #8
10001fcc:	3002      	adds	r0, #2
10001fce:	2adf      	cmp	r2, #223	@ 0xdf
10001fd0:	d1fa      	bne.n	10001fc8 <double_table_shim_on_use_helper+0x4>
10001fd2:	b2c9      	uxtb	r1, r1
10001fd4:	0882      	lsrs	r2, r0, #2
10001fd6:	d304      	bcc.n	10001fe2 <double_table_shim_on_use_helper+0x1e>
10001fd8:	8802      	ldrh	r2, [r0, #0]
10001fda:	8840      	ldrh	r0, [r0, #2]
10001fdc:	0400      	lsls	r0, r0, #16
10001fde:	4310      	orrs	r0, r2
10001fe0:	e000      	b.n	10001fe4 <double_table_shim_on_use_helper+0x20>
10001fe2:	6800      	ldr	r0, [r0, #0]
10001fe4:	4a01      	ldr	r2, [pc, #4]	@ (10001fec <double_table_shim_on_use_helper+0x28>)
10001fe6:	5050      	str	r0, [r2, r1]
10001fe8:	9003      	str	r0, [sp, #12]
10001fea:	bd07      	pop	{r0, r1, r2, pc}
10001fec:	20014e90 	.word	0x20014e90

10001ff0 <__wrap___aeabi_lmul>:
10001ff0:	4351      	muls	r1, r2
10001ff2:	4343      	muls	r3, r0
10001ff4:	18c9      	adds	r1, r1, r3
10001ff6:	468c      	mov	ip, r1
10001ff8:	0c11      	lsrs	r1, r2, #16
10001ffa:	b283      	uxth	r3, r0
10001ffc:	434b      	muls	r3, r1
10001ffe:	b410      	push	{r4}
10002000:	0c04      	lsrs	r4, r0, #16
10002002:	4361      	muls	r1, r4
10002004:	b292      	uxth	r2, r2
10002006:	b280      	uxth	r0, r0
10002008:	4350      	muls	r0, r2
1000200a:	4362      	muls	r2, r4
1000200c:	041c      	lsls	r4, r3, #16
1000200e:	0c1b      	lsrs	r3, r3, #16
10002010:	1900      	adds	r0, r0, r4
10002012:	bc10      	pop	{r4}
10002014:	4159      	adcs	r1, r3
10002016:	0413      	lsls	r3, r2, #16
10002018:	0c12      	lsrs	r2, r2, #16
1000201a:	18c0      	adds	r0, r0, r3
1000201c:	4151      	adcs	r1, r2
1000201e:	4461      	add	r1, ip
10002020:	4770      	bx	lr
	...

10002024 <__aeabi_float_init>:
10002024:	2313      	movs	r3, #19
10002026:	b510      	push	{r4, lr}
10002028:	4810      	ldr	r0, [pc, #64]	@ (1000206c <__aeabi_float_init+0x48>)
1000202a:	781c      	ldrb	r4, [r3, #0]
1000202c:	f7ff fd36 	bl	10001a9c <rom_data_lookup>
10002030:	0001      	movs	r1, r0
10002032:	2c01      	cmp	r4, #1
10002034:	d00a      	beq.n	1000204c <__aeabi_float_init+0x28>
10002036:	dd03      	ble.n	10002040 <__aeabi_float_init+0x1c>
10002038:	2280      	movs	r2, #128	@ 0x80
1000203a:	480d      	ldr	r0, [pc, #52]	@ (10002070 <__aeabi_float_init+0x4c>)
1000203c:	f000 f882 	bl	10002144 <__wrap___aeabi_memcpy>
10002040:	480c      	ldr	r0, [pc, #48]	@ (10002074 <__aeabi_float_init+0x50>)
10002042:	f7ff fd23 	bl	10001a8c <rom_func_lookup>
10002046:	4b0c      	ldr	r3, [pc, #48]	@ (10002078 <__aeabi_float_init+0x54>)
10002048:	6018      	str	r0, [r3, #0]
1000204a:	bd10      	pop	{r4, pc}
1000204c:	4c08      	ldr	r4, [pc, #32]	@ (10002070 <__aeabi_float_init+0x4c>)
1000204e:	2254      	movs	r2, #84	@ 0x54
10002050:	0020      	movs	r0, r4
10002052:	f000 f877 	bl	10002144 <__wrap___aeabi_memcpy>
10002056:	0023      	movs	r3, r4
10002058:	0021      	movs	r1, r4
1000205a:	4a08      	ldr	r2, [pc, #32]	@ (1000207c <__aeabi_float_init+0x58>)
1000205c:	3354      	adds	r3, #84	@ 0x54
1000205e:	3180      	adds	r1, #128	@ 0x80
10002060:	c304      	stmia	r3!, {r2}
10002062:	428b      	cmp	r3, r1
10002064:	d1fc      	bne.n	10002060 <__aeabi_float_init+0x3c>
10002066:	6222      	str	r2, [r4, #32]
10002068:	61e2      	str	r2, [r4, #28]
1000206a:	e7e9      	b.n	10002040 <__aeabi_float_init+0x1c>
1000206c:	00004653 	.word	0x00004653
10002070:	20014f94 	.word	0x20014f94
10002074:	0000334c 	.word	0x0000334c
10002078:	20014f90 	.word	0x20014f90
1000207c:	10002081 	.word	0x10002081

10002080 <float_table_shim_on_use_helper>:
10002080:	b507      	push	{r0, r1, r2, lr}
10002082:	4660      	mov	r0, ip
10002084:	8801      	ldrh	r1, [r0, #0]
10002086:	0a0a      	lsrs	r2, r1, #8
10002088:	3002      	adds	r0, #2
1000208a:	2adf      	cmp	r2, #223	@ 0xdf
1000208c:	d1fa      	bne.n	10002084 <float_table_shim_on_use_helper+0x4>
1000208e:	b2c9      	uxtb	r1, r1
10002090:	0882      	lsrs	r2, r0, #2
10002092:	d304      	bcc.n	1000209e <float_table_shim_on_use_helper+0x1e>
10002094:	8802      	ldrh	r2, [r0, #0]
10002096:	8840      	ldrh	r0, [r0, #2]
10002098:	0400      	lsls	r0, r0, #16
1000209a:	4310      	orrs	r0, r2
1000209c:	e000      	b.n	100020a0 <float_table_shim_on_use_helper+0x20>
1000209e:	6800      	ldr	r0, [r0, #0]
100020a0:	4a01      	ldr	r2, [pc, #4]	@ (100020a8 <float_table_shim_on_use_helper+0x28>)
100020a2:	5050      	str	r0, [r2, r1]
100020a4:	9003      	str	r0, [sp, #12]
100020a6:	bd07      	pop	{r0, r1, r2, pc}
100020a8:	20014f94 	.word	0x20014f94

100020ac <__wrap_malloc>:
100020ac:	b570      	push	{r4, r5, r6, lr}
100020ae:	0004      	movs	r4, r0
100020b0:	4e0a      	ldr	r6, [pc, #40]	@ (100020dc <__wrap_malloc+0x30>)
100020b2:	0030      	movs	r0, r6
100020b4:	f001 fcfc 	bl	10003ab0 <__mutex_enter_blocking_veneer>
100020b8:	0020      	movs	r0, r4
100020ba:	f000 ffd1 	bl	10003060 <malloc>
100020be:	0005      	movs	r5, r0
100020c0:	0030      	movs	r0, r6
100020c2:	f001 fccd 	bl	10003a60 <__mutex_exit_veneer>
100020c6:	2d00      	cmp	r5, #0
100020c8:	d005      	beq.n	100020d6 <__wrap_malloc+0x2a>
100020ca:	4b05      	ldr	r3, [pc, #20]	@ (100020e0 <__wrap_malloc+0x34>)
100020cc:	192c      	adds	r4, r5, r4
100020ce:	429c      	cmp	r4, r3
100020d0:	d801      	bhi.n	100020d6 <__wrap_malloc+0x2a>
100020d2:	0028      	movs	r0, r5
100020d4:	bd70      	pop	{r4, r5, r6, pc}
100020d6:	4803      	ldr	r0, [pc, #12]	@ (100020e4 <__wrap_malloc+0x38>)
100020d8:	f7ff fc8c 	bl	100019f4 <panic>
100020dc:	200012dc 	.word	0x200012dc
100020e0:	20040000 	.word	0x20040000
100020e4:	10003b38 	.word	0x10003b38

100020e8 <__wrap_calloc>:
100020e8:	b570      	push	{r4, r5, r6, lr}
100020ea:	0005      	movs	r5, r0
100020ec:	000c      	movs	r4, r1
100020ee:	4e0b      	ldr	r6, [pc, #44]	@ (1000211c <__wrap_calloc+0x34>)
100020f0:	0030      	movs	r0, r6
100020f2:	f001 fcdd 	bl	10003ab0 <__mutex_enter_blocking_veneer>
100020f6:	0028      	movs	r0, r5
100020f8:	0021      	movs	r1, r4
100020fa:	f000 ff51 	bl	10002fa0 <calloc>
100020fe:	0005      	movs	r5, r0
10002100:	0030      	movs	r0, r6
10002102:	f001 fcad 	bl	10003a60 <__mutex_exit_veneer>
10002106:	2d00      	cmp	r5, #0
10002108:	d005      	beq.n	10002116 <__wrap_calloc+0x2e>
1000210a:	4b05      	ldr	r3, [pc, #20]	@ (10002120 <__wrap_calloc+0x38>)
1000210c:	192c      	adds	r4, r5, r4
1000210e:	429c      	cmp	r4, r3
10002110:	d801      	bhi.n	10002116 <__wrap_calloc+0x2e>
10002112:	0028      	movs	r0, r5
10002114:	bd70      	pop	{r4, r5, r6, pc}
10002116:	4803      	ldr	r0, [pc, #12]	@ (10002124 <__wrap_calloc+0x3c>)
10002118:	f7ff fc6c 	bl	100019f4 <panic>
1000211c:	200012dc 	.word	0x200012dc
10002120:	20040000 	.word	0x20040000
10002124:	10003b38 	.word	0x10003b38

10002128 <__aeabi_mem_init>:
10002128:	4801      	ldr	r0, [pc, #4]	@ (10002130 <__aeabi_mem_init+0x8>)
1000212a:	2104      	movs	r1, #4
1000212c:	4b01      	ldr	r3, [pc, #4]	@ (10002134 <__aeabi_mem_init+0xc>)
1000212e:	4718      	bx	r3
10002130:	20000d90 	.word	0x20000d90
10002134:	10001aad 	.word	0x10001aad

10002138 <__wrap_memset>:
10002138:	4b01      	ldr	r3, [pc, #4]	@ (10002140 <__wrap_memset+0x8>)
1000213a:	681b      	ldr	r3, [r3, #0]
1000213c:	4718      	bx	r3
1000213e:	0000      	.short	0x0000
10002140:	20000d90 	.word	0x20000d90

10002144 <__wrap___aeabi_memcpy>:
10002144:	4b01      	ldr	r3, [pc, #4]	@ (1000214c <__wrap___aeabi_memcpy+0x8>)
10002146:	685b      	ldr	r3, [r3, #4]
10002148:	4718      	bx	r3
1000214a:	0000      	.short	0x0000
1000214c:	20000d90 	.word	0x20000d90

10002150 <stdio_out_chars_no_crlf>:
10002150:	0003      	movs	r3, r0
10002152:	b510      	push	{r4, lr}
10002154:	0008      	movs	r0, r1
10002156:	0011      	movs	r1, r2
10002158:	681b      	ldr	r3, [r3, #0]
1000215a:	4798      	blx	r3
1000215c:	bd10      	pop	{r4, pc}
1000215e:	46c0      	nop			@ (mov r8, r8)

10002160 <stdio_out_chars_crlf>:
10002160:	b5f0      	push	{r4, r5, r6, r7, lr}
10002162:	46c6      	mov	lr, r8
10002164:	b500      	push	{lr}
10002166:	7d43      	ldrb	r3, [r0, #21]
10002168:	0007      	movs	r7, r0
1000216a:	000d      	movs	r5, r1
1000216c:	0016      	movs	r6, r2
1000216e:	2b00      	cmp	r3, #0
10002170:	d038      	beq.n	100021e4 <stdio_out_chars_crlf+0x84>
10002172:	2a00      	cmp	r2, #0
10002174:	dd2e      	ble.n	100021d4 <stdio_out_chars_crlf+0x74>
10002176:	2100      	movs	r1, #0
10002178:	1e6a      	subs	r2, r5, #1
1000217a:	4690      	mov	r8, r2
1000217c:	5c6a      	ldrb	r2, [r5, r1]
1000217e:	7d03      	ldrb	r3, [r0, #20]
10002180:	1c4c      	adds	r4, r1, #1
10002182:	2000      	movs	r0, #0
10002184:	2a0a      	cmp	r2, #10
10002186:	d00c      	beq.n	100021a2 <stdio_out_chars_crlf+0x42>
10002188:	42a6      	cmp	r6, r4
1000218a:	d016      	beq.n	100021ba <stdio_out_chars_crlf+0x5a>
1000218c:	4643      	mov	r3, r8
1000218e:	5d1b      	ldrb	r3, [r3, r4]
10002190:	0021      	movs	r1, r4
10002192:	3b0d      	subs	r3, #13
10002194:	425a      	negs	r2, r3
10002196:	4153      	adcs	r3, r2
10002198:	5c6a      	ldrb	r2, [r5, r1]
1000219a:	b2db      	uxtb	r3, r3
1000219c:	1c4c      	adds	r4, r1, #1
1000219e:	2a0a      	cmp	r2, #10
100021a0:	d1f2      	bne.n	10002188 <stdio_out_chars_crlf+0x28>
100021a2:	2b00      	cmp	r3, #0
100021a4:	d1f0      	bne.n	10002188 <stdio_out_chars_crlf+0x28>
100021a6:	4281      	cmp	r1, r0
100021a8:	dc17      	bgt.n	100021da <stdio_out_chars_crlf+0x7a>
100021aa:	2102      	movs	r1, #2
100021ac:	4810      	ldr	r0, [pc, #64]	@ (100021f0 <stdio_out_chars_crlf+0x90>)
100021ae:	683b      	ldr	r3, [r7, #0]
100021b0:	4798      	blx	r3
100021b2:	42a6      	cmp	r6, r4
100021b4:	d007      	beq.n	100021c6 <stdio_out_chars_crlf+0x66>
100021b6:	0020      	movs	r0, r4
100021b8:	e7e8      	b.n	1000218c <stdio_out_chars_crlf+0x2c>
100021ba:	4286      	cmp	r6, r0
100021bc:	dd03      	ble.n	100021c6 <stdio_out_chars_crlf+0x66>
100021be:	1a31      	subs	r1, r6, r0
100021c0:	683b      	ldr	r3, [r7, #0]
100021c2:	1828      	adds	r0, r5, r0
100021c4:	4798      	blx	r3
100021c6:	19ad      	adds	r5, r5, r6
100021c8:	3d01      	subs	r5, #1
100021ca:	782b      	ldrb	r3, [r5, #0]
100021cc:	3b0d      	subs	r3, #13
100021ce:	425a      	negs	r2, r3
100021d0:	4153      	adcs	r3, r2
100021d2:	753b      	strb	r3, [r7, #20]
100021d4:	bc80      	pop	{r7}
100021d6:	46b8      	mov	r8, r7
100021d8:	bdf0      	pop	{r4, r5, r6, r7, pc}
100021da:	1a09      	subs	r1, r1, r0
100021dc:	683b      	ldr	r3, [r7, #0]
100021de:	1828      	adds	r0, r5, r0
100021e0:	4798      	blx	r3
100021e2:	e7e2      	b.n	100021aa <stdio_out_chars_crlf+0x4a>
100021e4:	6803      	ldr	r3, [r0, #0]
100021e6:	0011      	movs	r1, r2
100021e8:	0028      	movs	r0, r5
100021ea:	4798      	blx	r3
100021ec:	e7f2      	b.n	100021d4 <stdio_out_chars_crlf+0x74>
100021ee:	46c0      	nop			@ (mov r8, r8)
100021f0:	10003c64 	.word	0x10003c64

100021f4 <stdio_put_string.isra.0>:
100021f4:	b5f0      	push	{r4, r5, r6, r7, lr}
100021f6:	4645      	mov	r5, r8
100021f8:	46de      	mov	lr, fp
100021fa:	464e      	mov	r6, r9
100021fc:	4657      	mov	r7, sl
100021fe:	b5e0      	push	{r5, r6, r7, lr}
10002200:	b085      	sub	sp, #20
10002202:	4691      	mov	r9, r2
10002204:	001c      	movs	r4, r3
10002206:	4680      	mov	r8, r0
10002208:	000d      	movs	r5, r1
1000220a:	f7fe ffdb 	bl	100011c4 <time_us_64>
1000220e:	2300      	movs	r3, #0
10002210:	4a26      	ldr	r2, [pc, #152]	@ (100022ac <stdio_put_string.isra.0+0xb8>)
10002212:	1812      	adds	r2, r2, r0
10002214:	414b      	adcs	r3, r1
10002216:	2180      	movs	r1, #128	@ 0x80
10002218:	0609      	lsls	r1, r1, #24
1000221a:	428b      	cmp	r3, r1
1000221c:	d302      	bcc.n	10002224 <stdio_put_string.isra.0+0x30>
1000221e:	2201      	movs	r2, #1
10002220:	4b23      	ldr	r3, [pc, #140]	@ (100022b0 <stdio_put_string.isra.0+0xbc>)
10002222:	4252      	negs	r2, r2
10002224:	4923      	ldr	r1, [pc, #140]	@ (100022b4 <stdio_put_string.isra.0+0xc0>)
10002226:	0008      	movs	r0, r1
10002228:	468a      	mov	sl, r1
1000222a:	f001 fc39 	bl	10003aa0 <__mutex_try_enter_block_until_veneer>
1000222e:	9001      	str	r0, [sp, #4]
10002230:	1c6b      	adds	r3, r5, #1
10002232:	d103      	bne.n	1000223c <stdio_put_string.isra.0+0x48>
10002234:	4640      	mov	r0, r8
10002236:	f001 fa3d 	bl	100036b4 <strlen>
1000223a:	0005      	movs	r5, r0
1000223c:	2c00      	cmp	r4, #0
1000223e:	d02e      	beq.n	1000229e <stdio_put_string.isra.0+0xaa>
10002240:	4f1d      	ldr	r7, [pc, #116]	@ (100022b8 <stdio_put_string.isra.0+0xc4>)
10002242:	4b1e      	ldr	r3, [pc, #120]	@ (100022bc <stdio_put_string.isra.0+0xc8>)
10002244:	681c      	ldr	r4, [r3, #0]
10002246:	2c00      	cmp	r4, #0
10002248:	d01f      	beq.n	1000228a <stdio_put_string.isra.0+0x96>
1000224a:	230a      	movs	r3, #10
1000224c:	4e1c      	ldr	r6, [pc, #112]	@ (100022c0 <stdio_put_string.isra.0+0xcc>)
1000224e:	469b      	mov	fp, r3
10002250:	e002      	b.n	10002258 <stdio_put_string.isra.0+0x64>
10002252:	6924      	ldr	r4, [r4, #16]
10002254:	2c00      	cmp	r4, #0
10002256:	d018      	beq.n	1000228a <stdio_put_string.isra.0+0x96>
10002258:	6823      	ldr	r3, [r4, #0]
1000225a:	2b00      	cmp	r3, #0
1000225c:	d0f9      	beq.n	10002252 <stdio_put_string.isra.0+0x5e>
1000225e:	6833      	ldr	r3, [r6, #0]
10002260:	2b00      	cmp	r3, #0
10002262:	d001      	beq.n	10002268 <stdio_put_string.isra.0+0x74>
10002264:	429c      	cmp	r4, r3
10002266:	d1f4      	bne.n	10002252 <stdio_put_string.isra.0+0x5e>
10002268:	002a      	movs	r2, r5
1000226a:	4641      	mov	r1, r8
1000226c:	0020      	movs	r0, r4
1000226e:	47b8      	blx	r7
10002270:	464b      	mov	r3, r9
10002272:	2b00      	cmp	r3, #0
10002274:	d0ed      	beq.n	10002252 <stdio_put_string.isra.0+0x5e>
10002276:	465a      	mov	r2, fp
10002278:	ab02      	add	r3, sp, #8
1000227a:	0020      	movs	r0, r4
1000227c:	71da      	strb	r2, [r3, #7]
1000227e:	1dd9      	adds	r1, r3, #7
10002280:	2201      	movs	r2, #1
10002282:	47b8      	blx	r7
10002284:	6924      	ldr	r4, [r4, #16]
10002286:	2c00      	cmp	r4, #0
10002288:	d1e6      	bne.n	10002258 <stdio_put_string.isra.0+0x64>
1000228a:	9b01      	ldr	r3, [sp, #4]
1000228c:	2b00      	cmp	r3, #0
1000228e:	d108      	bne.n	100022a2 <stdio_put_string.isra.0+0xae>
10002290:	b005      	add	sp, #20
10002292:	bcf0      	pop	{r4, r5, r6, r7}
10002294:	46bb      	mov	fp, r7
10002296:	46b2      	mov	sl, r6
10002298:	46a9      	mov	r9, r5
1000229a:	46a0      	mov	r8, r4
1000229c:	bdf0      	pop	{r4, r5, r6, r7, pc}
1000229e:	4f09      	ldr	r7, [pc, #36]	@ (100022c4 <stdio_put_string.isra.0+0xd0>)
100022a0:	e7cf      	b.n	10002242 <stdio_put_string.isra.0+0x4e>
100022a2:	4650      	mov	r0, sl
100022a4:	f001 fbdc 	bl	10003a60 <__mutex_exit_veneer>
100022a8:	e7f2      	b.n	10002290 <stdio_put_string.isra.0+0x9c>
100022aa:	46c0      	nop			@ (mov r8, r8)
100022ac:	000f4240 	.word	0x000f4240
100022b0:	7fffffff 	.word	0x7fffffff
100022b4:	200012e4 	.word	0x200012e4
100022b8:	10002151 	.word	0x10002151
100022bc:	20001d98 	.word	0x20001d98
100022c0:	20002054 	.word	0x20002054
100022c4:	10002161 	.word	0x10002161

100022c8 <__wrap_putchar>:
100022c8:	b510      	push	{r4, lr}
100022ca:	b082      	sub	sp, #8
100022cc:	466b      	mov	r3, sp
100022ce:	0004      	movs	r4, r0
100022d0:	2200      	movs	r2, #0
100022d2:	1dd8      	adds	r0, r3, #7
100022d4:	2101      	movs	r1, #1
100022d6:	2300      	movs	r3, #0
100022d8:	7004      	strb	r4, [r0, #0]
100022da:	f7ff ff8b 	bl	100021f4 <stdio_put_string.isra.0>
100022de:	0020      	movs	r0, r4
100022e0:	b002      	add	sp, #8
100022e2:	bd10      	pop	{r4, pc}

100022e4 <__wrap_puts>:
100022e4:	b570      	push	{r4, r5, r6, lr}
100022e6:	0004      	movs	r4, r0
100022e8:	f001 f9e4 	bl	100036b4 <strlen>
100022ec:	2300      	movs	r3, #0
100022ee:	0001      	movs	r1, r0
100022f0:	0005      	movs	r5, r0
100022f2:	2201      	movs	r2, #1
100022f4:	0020      	movs	r0, r4
100022f6:	f7ff ff7d 	bl	100021f4 <stdio_put_string.isra.0>
100022fa:	4b06      	ldr	r3, [pc, #24]	@ (10002314 <__wrap_puts+0x30>)
100022fc:	681c      	ldr	r4, [r3, #0]
100022fe:	2c00      	cmp	r4, #0
10002300:	d006      	beq.n	10002310 <__wrap_puts+0x2c>
10002302:	6863      	ldr	r3, [r4, #4]
10002304:	2b00      	cmp	r3, #0
10002306:	d000      	beq.n	1000230a <__wrap_puts+0x26>
10002308:	4798      	blx	r3
1000230a:	6924      	ldr	r4, [r4, #16]
1000230c:	2c00      	cmp	r4, #0
1000230e:	d1f8      	bne.n	10002302 <__wrap_puts+0x1e>
10002310:	0028      	movs	r0, r5
10002312:	bd70      	pop	{r4, r5, r6, pc}
10002314:	20001d98 	.word	0x20001d98

10002318 <core1_trampoline>:
10002318:	bd03      	pop	{r0, r1, pc}
1000231a:	46c0      	nop			@ (mov r8, r8)

1000231c <core1_wrapper>:
1000231c:	b510      	push	{r4, lr}
1000231e:	0004      	movs	r4, r0
10002320:	f7fe fb84 	bl	10000a2c <irq_init_priorities>
10002324:	47a0      	blx	r4
10002326:	bd10      	pop	{r4, pc}

10002328 <multicore_launch_core1_raw>:
10002328:	b5f0      	push	{r4, r5, r6, r7, lr}
1000232a:	0004      	movs	r4, r0
1000232c:	b087      	sub	sp, #28
1000232e:	200f      	movs	r0, #15
10002330:	000e      	movs	r6, r1
10002332:	0017      	movs	r7, r2
10002334:	f7fe fa08 	bl	10000748 <irq_is_enabled>
10002338:	2100      	movs	r1, #0
1000233a:	0005      	movs	r5, r0
1000233c:	200f      	movs	r0, #15
1000233e:	f7fe f9f1 	bl	10000724 <irq_set_enabled>
10002342:	2300      	movs	r3, #0
10002344:	2200      	movs	r2, #0
10002346:	9200      	str	r2, [sp, #0]
10002348:	9301      	str	r3, [sp, #4]
1000234a:	2301      	movs	r3, #1
1000234c:	9302      	str	r3, [sp, #8]
1000234e:	23d0      	movs	r3, #208	@ 0xd0
10002350:	9604      	str	r6, [sp, #16]
10002352:	9405      	str	r4, [sp, #20]
10002354:	2600      	movs	r6, #0
10002356:	2400      	movs	r4, #0
10002358:	2101      	movs	r1, #1
1000235a:	2002      	movs	r0, #2
1000235c:	9703      	str	r7, [sp, #12]
1000235e:	061b      	lsls	r3, r3, #24
10002360:	2c00      	cmp	r4, #0
10002362:	d014      	beq.n	1000238e <multicore_launch_core1_raw+0x66>
10002364:	6d1a      	ldr	r2, [r3, #80]	@ 0x50
10002366:	4210      	tst	r0, r2
10002368:	d0fc      	beq.n	10002364 <multicore_launch_core1_raw+0x3c>
1000236a:	655c      	str	r4, [r3, #84]	@ 0x54
1000236c:	bf40      	sev
1000236e:	6d1a      	ldr	r2, [r3, #80]	@ 0x50
10002370:	4211      	tst	r1, r2
10002372:	d103      	bne.n	1000237c <multicore_launch_core1_raw+0x54>
10002374:	bf20      	wfe
10002376:	6d1a      	ldr	r2, [r3, #80]	@ 0x50
10002378:	4211      	tst	r1, r2
1000237a:	d0fb      	beq.n	10002374 <multicore_launch_core1_raw+0x4c>
1000237c:	6d9a      	ldr	r2, [r3, #88]	@ 0x58
1000237e:	42a2      	cmp	r2, r4
10002380:	d00a      	beq.n	10002398 <multicore_launch_core1_raw+0x70>
10002382:	2600      	movs	r6, #0
10002384:	466c      	mov	r4, sp
10002386:	00b2      	lsls	r2, r6, #2
10002388:	58a4      	ldr	r4, [r4, r2]
1000238a:	e7e9      	b.n	10002360 <multicore_launch_core1_raw+0x38>
1000238c:	6d9a      	ldr	r2, [r3, #88]	@ 0x58
1000238e:	6d1a      	ldr	r2, [r3, #80]	@ 0x50
10002390:	4211      	tst	r1, r2
10002392:	d1fb      	bne.n	1000238c <multicore_launch_core1_raw+0x64>
10002394:	bf40      	sev
10002396:	e7e5      	b.n	10002364 <multicore_launch_core1_raw+0x3c>
10002398:	3601      	adds	r6, #1
1000239a:	2e06      	cmp	r6, #6
1000239c:	d1f2      	bne.n	10002384 <multicore_launch_core1_raw+0x5c>
1000239e:	0029      	movs	r1, r5
100023a0:	200f      	movs	r0, #15
100023a2:	f7fe f9bf 	bl	10000724 <irq_set_enabled>
100023a6:	b007      	add	sp, #28
100023a8:	bdf0      	pop	{r4, r5, r6, r7, pc}
100023aa:	46c0      	nop			@ (mov r8, r8)

100023ac <multicore_launch_core1>:
100023ac:	4b0d      	ldr	r3, [pc, #52]	@ (100023e4 <multicore_launch_core1+0x38>)
100023ae:	4a0e      	ldr	r2, [pc, #56]	@ (100023e8 <multicore_launch_core1+0x3c>)
100023b0:	b510      	push	{r4, lr}
100023b2:	4293      	cmp	r3, r2
100023b4:	d310      	bcc.n	100023d8 <multicore_launch_core1+0x2c>
100023b6:	4a0d      	ldr	r2, [pc, #52]	@ (100023ec <multicore_launch_core1+0x40>)
100023b8:	1899      	adds	r1, r3, r2
100023ba:	001a      	movs	r2, r3
100023bc:	4c0b      	ldr	r4, [pc, #44]	@ (100023ec <multicore_launch_core1+0x40>)
100023be:	5110      	str	r0, [r2, r4]
100023c0:	20ff      	movs	r0, #255	@ 0xff
100023c2:	00c0      	lsls	r0, r0, #3
100023c4:	5013      	str	r3, [r2, r0]
100023c6:	4b0a      	ldr	r3, [pc, #40]	@ (100023f0 <multicore_launch_core1+0x44>)
100023c8:	480a      	ldr	r0, [pc, #40]	@ (100023f4 <multicore_launch_core1+0x48>)
100023ca:	5013      	str	r3, [r2, r0]
100023cc:	4b0a      	ldr	r3, [pc, #40]	@ (100023f8 <multicore_launch_core1+0x4c>)
100023ce:	480b      	ldr	r0, [pc, #44]	@ (100023fc <multicore_launch_core1+0x50>)
100023d0:	689a      	ldr	r2, [r3, #8]
100023d2:	f7ff ffa9 	bl	10002328 <multicore_launch_core1_raw>
100023d6:	bd10      	pop	{r4, pc}
100023d8:	2301      	movs	r3, #1
100023da:	425b      	negs	r3, r3
100023dc:	001a      	movs	r2, r3
100023de:	4908      	ldr	r1, [pc, #32]	@ (10002400 <multicore_launch_core1+0x54>)
100023e0:	e7ec      	b.n	100023bc <multicore_launch_core1+0x10>
100023e2:	46c0      	nop			@ (mov r8, r8)
100023e4:	20040800 	.word	0x20040800
100023e8:	20040164 	.word	0x20040164
100023ec:	000007f4 	.word	0x000007f4
100023f0:	1000231d 	.word	0x1000231d
100023f4:	000007fc 	.word	0x000007fc
100023f8:	e000ed00 	.word	0xe000ed00
100023fc:	10002319 	.word	0x10002319
10002400:	000007f3 	.word	0x000007f3

10002404 <dvi_init>:
10002404:	2334      	movs	r3, #52	@ 0x34
10002406:	b5f0      	push	{r4, r5, r6, r7, lr}
10002408:	46de      	mov	lr, fp
1000240a:	4657      	mov	r7, sl
1000240c:	464e      	mov	r6, r9
1000240e:	4645      	mov	r5, r8
10002410:	469a      	mov	sl, r3
10002412:	b5e0      	push	{r5, r6, r7, lr}
10002414:	0005      	movs	r5, r0
10002416:	4482      	add	sl, r0
10002418:	4650      	mov	r0, sl
1000241a:	b083      	sub	sp, #12
1000241c:	4689      	mov	r9, r1
1000241e:	4690      	mov	r8, r2
10002420:	f000 fa76 	bl	10002910 <dvi_timing_state_init>
10002424:	0028      	movs	r0, r5
10002426:	002e      	movs	r6, r5
10002428:	303c      	adds	r0, #60	@ 0x3c
1000242a:	1d2f      	adds	r7, r5, #4
1000242c:	f000 f97a 	bl	10002724 <dvi_serialiser_init>
10002430:	003c      	movs	r4, r7
10002432:	3640      	adds	r6, #64	@ 0x40
10002434:	2001      	movs	r0, #1
10002436:	f000 fbd7 	bl	10002be8 <dma_claim_unused_channel>
1000243a:	6020      	str	r0, [r4, #0]
1000243c:	2001      	movs	r0, #1
1000243e:	f000 fbd3 	bl	10002be8 <dma_claim_unused_channel>
10002442:	6060      	str	r0, [r4, #4]
10002444:	ce04      	ldmia	r6!, {r2}
10002446:	6be8      	ldr	r0, [r5, #60]	@ 0x3c
10002448:	1d13      	adds	r3, r2, #4
1000244a:	009b      	lsls	r3, r3, #2
1000244c:	18c3      	adds	r3, r0, r3
1000244e:	60a3      	str	r3, [r4, #8]
10002450:	4b52      	ldr	r3, [pc, #328]	@ (1000259c <dvi_init+0x198>)
10002452:	18c3      	adds	r3, r0, r3
10002454:	1e59      	subs	r1, r3, #1
10002456:	418b      	sbcs	r3, r1
10002458:	00db      	lsls	r3, r3, #3
1000245a:	189b      	adds	r3, r3, r2
1000245c:	60e3      	str	r3, [r4, #12]
1000245e:	3410      	adds	r4, #16
10002460:	45a2      	cmp	sl, r4
10002462:	d1e7      	bne.n	10002434 <dvi_init+0x30>
10002464:	229c      	movs	r2, #156	@ 0x9c
10002466:	2300      	movs	r3, #0
10002468:	209d      	movs	r0, #157	@ 0x9d
1000246a:	0092      	lsls	r2, r2, #2
1000246c:	50ab      	str	r3, [r5, r2]
1000246e:	3a08      	subs	r2, #8
10002470:	50ab      	str	r3, [r5, r2]
10002472:	0080      	lsls	r0, r0, #2
10002474:	3204      	adds	r2, #4
10002476:	50ab      	str	r3, [r5, r2]
10002478:	2104      	movs	r1, #4
1000247a:	464b      	mov	r3, r9
1000247c:	2208      	movs	r2, #8
1000247e:	1828      	adds	r0, r5, r0
10002480:	f7ff f886 	bl	10001590 <queue_init_with_spinlock>
10002484:	23a1      	movs	r3, #161	@ 0xa1
10002486:	009b      	lsls	r3, r3, #2
10002488:	18ec      	adds	r4, r5, r3
1000248a:	2208      	movs	r2, #8
1000248c:	464b      	mov	r3, r9
1000248e:	2104      	movs	r1, #4
10002490:	0020      	movs	r0, r4
10002492:	f7ff f87d 	bl	10001590 <queue_init_with_spinlock>
10002496:	20a5      	movs	r0, #165	@ 0xa5
10002498:	0080      	lsls	r0, r0, #2
1000249a:	4643      	mov	r3, r8
1000249c:	2208      	movs	r2, #8
1000249e:	2104      	movs	r1, #4
100024a0:	1828      	adds	r0, r5, r0
100024a2:	f7ff f875 	bl	10001590 <queue_init_with_spinlock>
100024a6:	20a9      	movs	r0, #169	@ 0xa9
100024a8:	0080      	lsls	r0, r0, #2
100024aa:	4643      	mov	r3, r8
100024ac:	2208      	movs	r2, #8
100024ae:	2104      	movs	r1, #4
100024b0:	1828      	adds	r0, r5, r0
100024b2:	f7ff f86d 	bl	10001590 <queue_init_with_spinlock>
100024b6:	002b      	movs	r3, r5
100024b8:	2201      	movs	r2, #1
100024ba:	0039      	movs	r1, r7
100024bc:	6828      	ldr	r0, [r5, #0]
100024be:	3368      	adds	r3, #104	@ 0x68
100024c0:	f000 fa2a 	bl	10002918 <dvi_setup_scanline_for_vblank>
100024c4:	002b      	movs	r3, r5
100024c6:	2200      	movs	r2, #0
100024c8:	0039      	movs	r1, r7
100024ca:	6828      	ldr	r0, [r5, #0]
100024cc:	33e8      	adds	r3, #232	@ 0xe8
100024ce:	f000 fa23 	bl	10002918 <dvi_setup_scanline_for_vblank>
100024d2:	002b      	movs	r3, r5
100024d4:	2280      	movs	r2, #128	@ 0x80
100024d6:	3369      	adds	r3, #105	@ 0x69
100024d8:	0039      	movs	r1, r7
100024da:	6828      	ldr	r0, [r5, #0]
100024dc:	33ff      	adds	r3, #255	@ 0xff
100024de:	0592      	lsls	r2, r2, #22
100024e0:	f000 faa8 	bl	10002a34 <dvi_setup_scanline_for_active>
100024e4:	002b      	movs	r3, r5
100024e6:	33e9      	adds	r3, #233	@ 0xe9
100024e8:	33ff      	adds	r3, #255	@ 0xff
100024ea:	2200      	movs	r2, #0
100024ec:	0039      	movs	r1, r7
100024ee:	6828      	ldr	r0, [r5, #0]
100024f0:	f000 faa0 	bl	10002a34 <dvi_setup_scanline_for_active>
100024f4:	2303      	movs	r3, #3
100024f6:	4698      	mov	r8, r3
100024f8:	23a1      	movs	r3, #161	@ 0xa1
100024fa:	009b      	lsls	r3, r3, #2
100024fc:	469b      	mov	fp, r3
100024fe:	2600      	movs	r6, #0
10002500:	e019      	b.n	10002536 <dvi_init+0x132>
10002502:	464f      	mov	r7, r9
10002504:	6860      	ldr	r0, [r4, #4]
10002506:	009a      	lsls	r2, r3, #2
10002508:	5017      	str	r7, [r2, r0]
1000250a:	0032      	movs	r2, r6
1000250c:	3301      	adds	r3, #1
1000250e:	b29b      	uxth	r3, r3
10002510:	4299      	cmp	r1, r3
10002512:	4172      	adcs	r2, r6
10002514:	4252      	negs	r2, r2
10002516:	4013      	ands	r3, r2
10002518:	8123      	strh	r3, [r4, #8]
1000251a:	f3bf 8f5f 	dmb	sy
1000251e:	9b01      	ldr	r3, [sp, #4]
10002520:	601e      	str	r6, [r3, #0]
10002522:	f38c 8810 	msr	PRIMASK, ip
10002526:	bf40      	sev
10002528:	2301      	movs	r3, #1
1000252a:	425b      	negs	r3, r3
1000252c:	469c      	mov	ip, r3
1000252e:	44e0      	add	r8, ip
10002530:	4643      	mov	r3, r8
10002532:	2b00      	cmp	r3, #0
10002534:	d028      	beq.n	10002588 <dvi_init+0x184>
10002536:	682b      	ldr	r3, [r5, #0]
10002538:	691b      	ldr	r3, [r3, #16]
1000253a:	0058      	lsls	r0, r3, #1
1000253c:	18c0      	adds	r0, r0, r3
1000253e:	0840      	lsrs	r0, r0, #1
10002540:	0080      	lsls	r0, r0, #2
10002542:	f7ff fdb3 	bl	100020ac <__wrap_malloc>
10002546:	4681      	mov	r9, r0
10002548:	2800      	cmp	r0, #0
1000254a:	d024      	beq.n	10002596 <dvi_init+0x192>
1000254c:	465b      	mov	r3, fp
1000254e:	58ea      	ldr	r2, [r5, r3]
10002550:	f3ef 8c10 	mrs	ip, PRIMASK
10002554:	b672      	cpsid	i
10002556:	6813      	ldr	r3, [r2, #0]
10002558:	2b00      	cmp	r3, #0
1000255a:	d0fc      	beq.n	10002556 <dvi_init+0x152>
1000255c:	f3bf 8f5f 	dmb	sy
10002560:	8923      	ldrh	r3, [r4, #8]
10002562:	8962      	ldrh	r2, [r4, #10]
10002564:	89e1      	ldrh	r1, [r4, #14]
10002566:	1a9a      	subs	r2, r3, r2
10002568:	d501      	bpl.n	1000256e <dvi_init+0x16a>
1000256a:	1c48      	adds	r0, r1, #1
1000256c:	1812      	adds	r2, r2, r0
1000256e:	4658      	mov	r0, fp
10002570:	5828      	ldr	r0, [r5, r0]
10002572:	9001      	str	r0, [sp, #4]
10002574:	428a      	cmp	r2, r1
10002576:	d1c4      	bne.n	10002502 <dvi_init+0xfe>
10002578:	f3bf 8f5f 	dmb	sy
1000257c:	9b01      	ldr	r3, [sp, #4]
1000257e:	601e      	str	r6, [r3, #0]
10002580:	f38c 8810 	msr	PRIMASK, ip
10002584:	bf20      	wfe
10002586:	e7e1      	b.n	1000254c <dvi_init+0x148>
10002588:	b003      	add	sp, #12
1000258a:	bcf0      	pop	{r4, r5, r6, r7}
1000258c:	46bb      	mov	fp, r7
1000258e:	46b2      	mov	sl, r6
10002590:	46a9      	mov	r9, r5
10002592:	46a0      	mov	r8, r4
10002594:	bdf0      	pop	{r4, r5, r6, r7, pc}
10002596:	4802      	ldr	r0, [pc, #8]	@ (100025a0 <dvi_init+0x19c>)
10002598:	f7ff fa2c 	bl	100019f4 <panic>
1000259c:	afe00000 	.word	0xafe00000
100025a0:	10003ba8 	.word	0x10003ba8

100025a4 <dvi_register_irqs_this_core>:
100025a4:	b5f0      	push	{r4, r5, r6, r7, lr}
100025a6:	000e      	movs	r6, r1
100025a8:	2101      	movs	r1, #1
100025aa:	6883      	ldr	r3, [r0, #8]
100025ac:	2234      	movs	r2, #52	@ 0x34
100025ae:	4099      	lsls	r1, r3
100025b0:	46c6      	mov	lr, r8
100025b2:	4694      	mov	ip, r2
100025b4:	4688      	mov	r8, r1
100025b6:	2400      	movs	r4, #0
100025b8:	2501      	movs	r5, #1
100025ba:	b500      	push	{lr}
100025bc:	1d03      	adds	r3, r0, #4
100025be:	4484      	add	ip, r0
100025c0:	002f      	movs	r7, r5
100025c2:	681a      	ldr	r2, [r3, #0]
100025c4:	0029      	movs	r1, r5
100025c6:	4097      	lsls	r7, r2
100025c8:	003a      	movs	r2, r7
100025ca:	685f      	ldr	r7, [r3, #4]
100025cc:	3310      	adds	r3, #16
100025ce:	40b9      	lsls	r1, r7
100025d0:	430a      	orrs	r2, r1
100025d2:	4314      	orrs	r4, r2
100025d4:	4563      	cmp	r3, ip
100025d6:	d1f3      	bne.n	100025c0 <dvi_register_irqs_this_core+0x1c>
100025d8:	22a0      	movs	r2, #160	@ 0xa0
100025da:	4641      	mov	r1, r8
100025dc:	4b12      	ldr	r3, [pc, #72]	@ (10002628 <dvi_register_irqs_this_core+0x84>)
100025de:	05d2      	lsls	r2, r2, #23
100025e0:	50d1      	str	r1, [r2, r3]
100025e2:	2e0b      	cmp	r6, #11
100025e4:	d012      	beq.n	1000260c <dvi_register_irqs_this_core+0x68>
100025e6:	4b11      	ldr	r3, [pc, #68]	@ (1000262c <dvi_register_irqs_this_core+0x88>)
100025e8:	681b      	ldr	r3, [r3, #0]
100025ea:	4059      	eors	r1, r3
100025ec:	4b10      	ldr	r3, [pc, #64]	@ (10002630 <dvi_register_irqs_this_core+0x8c>)
100025ee:	400c      	ands	r4, r1
100025f0:	601c      	str	r4, [r3, #0]
100025f2:	4b10      	ldr	r3, [pc, #64]	@ (10002634 <dvi_register_irqs_this_core+0x90>)
100025f4:	4910      	ldr	r1, [pc, #64]	@ (10002638 <dvi_register_irqs_this_core+0x94>)
100025f6:	6058      	str	r0, [r3, #4]
100025f8:	200c      	movs	r0, #12
100025fa:	f7fe f8b9 	bl	10000770 <irq_set_exclusive_handler>
100025fe:	0030      	movs	r0, r6
10002600:	2101      	movs	r1, #1
10002602:	f7fe f88f 	bl	10000724 <irq_set_enabled>
10002606:	bc80      	pop	{r7}
10002608:	46b8      	mov	r8, r7
1000260a:	bdf0      	pop	{r4, r5, r6, r7, pc}
1000260c:	4b0b      	ldr	r3, [pc, #44]	@ (1000263c <dvi_register_irqs_this_core+0x98>)
1000260e:	4a0c      	ldr	r2, [pc, #48]	@ (10002640 <dvi_register_irqs_this_core+0x9c>)
10002610:	681b      	ldr	r3, [r3, #0]
10002612:	404b      	eors	r3, r1
10002614:	4023      	ands	r3, r4
10002616:	6013      	str	r3, [r2, #0]
10002618:	4b06      	ldr	r3, [pc, #24]	@ (10002634 <dvi_register_irqs_this_core+0x90>)
1000261a:	490a      	ldr	r1, [pc, #40]	@ (10002644 <dvi_register_irqs_this_core+0xa0>)
1000261c:	6018      	str	r0, [r3, #0]
1000261e:	200b      	movs	r0, #11
10002620:	f7fe f8a6 	bl	10000770 <irq_set_exclusive_handler>
10002624:	e7eb      	b.n	100025fe <dvi_register_irqs_this_core+0x5a>
10002626:	46c0      	nop			@ (mov r8, r8)
10002628:	0000040c 	.word	0x0000040c
1000262c:	50000414 	.word	0x50000414
10002630:	50001414 	.word	0x50001414
10002634:	20001d90 	.word	0x20001d90
10002638:	200008c5 	.word	0x200008c5
1000263c:	50000404 	.word	0x50000404
10002640:	50001404 	.word	0x50001404
10002644:	200008e9 	.word	0x200008e9

10002648 <dvi_start>:
10002648:	b5f8      	push	{r3, r4, r5, r6, r7, lr}
1000264a:	4b34      	ldr	r3, [pc, #208]	@ (1000271c <dvi_start+0xd4>)
1000264c:	46de      	mov	lr, fp
1000264e:	469b      	mov	fp, r3
10002650:	23e8      	movs	r3, #232	@ 0xe8
10002652:	4645      	mov	r5, r8
10002654:	4657      	mov	r7, sl
10002656:	464e      	mov	r6, r9
10002658:	4698      	mov	r8, r3
1000265a:	3be4      	subs	r3, #228	@ 0xe4
1000265c:	b5e0      	push	{r5, r6, r7, lr}
1000265e:	469c      	mov	ip, r3
10002660:	2500      	movs	r5, #0
10002662:	4f2f      	ldr	r7, [pc, #188]	@ (10002720 <dvi_start+0xd8>)
10002664:	1d04      	adds	r4, r0, #4
10002666:	4480      	add	r8, r0
10002668:	26a0      	movs	r6, #160	@ 0xa0
1000266a:	4659      	mov	r1, fp
1000266c:	05f6      	lsls	r6, r6, #23
1000266e:	46b1      	mov	r9, r6
10002670:	6823      	ldr	r3, [r4, #0]
10002672:	02da      	lsls	r2, r3, #11
10002674:	403a      	ands	r2, r7
10002676:	430a      	orrs	r2, r1
10002678:	6861      	ldr	r1, [r4, #4]
1000267a:	0189      	lsls	r1, r1, #6
1000267c:	4449      	add	r1, r9
1000267e:	46c1      	mov	r9, r8
10002680:	2d00      	cmp	r5, #0
10002682:	d03c      	beq.n	100026fe <dvi_start+0xb6>
10002684:	2d01      	cmp	r5, #1
10002686:	d036      	beq.n	100026f6 <dvi_start+0xae>
10002688:	24a0      	movs	r4, #160	@ 0xa0
1000268a:	05e4      	lsls	r4, r4, #23
1000268c:	46a4      	mov	ip, r4
1000268e:	0004      	movs	r4, r0
10002690:	019b      	lsls	r3, r3, #6
10002692:	3449      	adds	r4, #73	@ 0x49
10002694:	4463      	add	r3, ip
10002696:	34ff      	adds	r4, #255	@ 0xff
10002698:	601c      	str	r4, [r3, #0]
1000269a:	6059      	str	r1, [r3, #4]
1000269c:	2104      	movs	r1, #4
1000269e:	6099      	str	r1, [r3, #8]
100026a0:	611a      	str	r2, [r3, #16]
100026a2:	2201      	movs	r2, #1
100026a4:	0011      	movs	r1, r2
100026a6:	6843      	ldr	r3, [r0, #4]
100026a8:	0014      	movs	r4, r2
100026aa:	4099      	lsls	r1, r3
100026ac:	000b      	movs	r3, r1
100026ae:	6941      	ldr	r1, [r0, #20]
100026b0:	0006      	movs	r6, r0
100026b2:	408c      	lsls	r4, r1
100026b4:	6a41      	ldr	r1, [r0, #36]	@ 0x24
100026b6:	4323      	orrs	r3, r4
100026b8:	408a      	lsls	r2, r1
100026ba:	4313      	orrs	r3, r2
100026bc:	2286      	movs	r2, #134	@ 0x86
100026be:	4661      	mov	r1, ip
100026c0:	0004      	movs	r4, r0
100026c2:	2501      	movs	r5, #1
100026c4:	00d2      	lsls	r2, r2, #3
100026c6:	508b      	str	r3, [r1, r2]
100026c8:	6bc1      	ldr	r1, [r0, #60]	@ 0x3c
100026ca:	3440      	adds	r4, #64	@ 0x40
100026cc:	364c      	adds	r6, #76	@ 0x4c
100026ce:	002a      	movs	r2, r5
100026d0:	6823      	ldr	r3, [r4, #0]
100026d2:	3310      	adds	r3, #16
100026d4:	409a      	lsls	r2, r3
100026d6:	684b      	ldr	r3, [r1, #4]
100026d8:	421a      	tst	r2, r3
100026da:	d0fc      	beq.n	100026d6 <dvi_start+0x8e>
100026dc:	3404      	adds	r4, #4
100026de:	42a6      	cmp	r6, r4
100026e0:	d1f5      	bne.n	100026ce <dvi_start+0x86>
100026e2:	2101      	movs	r1, #1
100026e4:	303c      	adds	r0, #60	@ 0x3c
100026e6:	f000 f8e3 	bl	100028b0 <dvi_serialiser_enable>
100026ea:	bcf0      	pop	{r4, r5, r6, r7}
100026ec:	46bb      	mov	fp, r7
100026ee:	46b2      	mov	sl, r6
100026f0:	46a9      	mov	r9, r5
100026f2:	46a0      	mov	r8, r4
100026f4:	bdf8      	pop	{r3, r4, r5, r6, r7, pc}
100026f6:	2694      	movs	r6, #148	@ 0x94
100026f8:	0076      	lsls	r6, r6, #1
100026fa:	46b1      	mov	r9, r6
100026fc:	4481      	add	r9, r0
100026fe:	26a0      	movs	r6, #160	@ 0xa0
10002700:	05f6      	lsls	r6, r6, #23
10002702:	46b2      	mov	sl, r6
10002704:	464e      	mov	r6, r9
10002706:	019b      	lsls	r3, r3, #6
10002708:	4453      	add	r3, sl
1000270a:	601e      	str	r6, [r3, #0]
1000270c:	6059      	str	r1, [r3, #4]
1000270e:	4661      	mov	r1, ip
10002710:	3501      	adds	r5, #1
10002712:	6099      	str	r1, [r3, #8]
10002714:	3410      	adds	r4, #16
10002716:	611a      	str	r2, [r3, #16]
10002718:	e7a6      	b.n	10002668 <dvi_start+0x20>
1000271a:	46c0      	nop			@ (mov r8, r8)
1000271c:	001f8539 	.word	0x001f8539
10002720:	ff1ffffd 	.word	0xff1ffffd

10002724 <dvi_serialiser_init>:
10002724:	b5f0      	push	{r4, r5, r6, r7, lr}
10002726:	46de      	mov	lr, fp
10002728:	4645      	mov	r5, r8
1000272a:	4657      	mov	r7, sl
1000272c:	464e      	mov	r6, r9
1000272e:	b5e0      	push	{r5, r6, r7, lr}
10002730:	0004      	movs	r4, r0
10002732:	b087      	sub	sp, #28
10002734:	4957      	ldr	r1, [pc, #348]	@ (10002894 <dvi_serialiser_init+0x170>)
10002736:	6800      	ldr	r0, [r0, #0]
10002738:	f000 fb18 	bl	10002d6c <pio_add_program>
1000273c:	0003      	movs	r3, r0
1000273e:	3301      	adds	r3, #1
10002740:	01c2      	lsls	r2, r0, #7
10002742:	031b      	lsls	r3, r3, #12
10002744:	4313      	orrs	r3, r2
10002746:	4a54      	ldr	r2, [pc, #336]	@ (10002898 <dvi_serialiser_init+0x174>)
10002748:	4682      	mov	sl, r0
1000274a:	4013      	ands	r3, r2
1000274c:	9301      	str	r3, [sp, #4]
1000274e:	2310      	movs	r3, #16
10002750:	469b      	mov	fp, r3
10002752:	46a0      	mov	r8, r4
10002754:	6260      	str	r0, [r4, #36]	@ 0x24
10002756:	1d25      	adds	r5, r4, #4
10002758:	44a3      	add	fp, r4
1000275a:	4643      	mov	r3, r8
1000275c:	6829      	ldr	r1, [r5, #0]
1000275e:	6818      	ldr	r0, [r3, #0]
10002760:	f000 faec 	bl	10002d3c <pio_sm_claim>
10002764:	4643      	mov	r3, r8
10002766:	2403      	movs	r4, #3
10002768:	681f      	ldr	r7, [r3, #0]
1000276a:	68ee      	ldr	r6, [r5, #12]
1000276c:	682b      	ldr	r3, [r5, #0]
1000276e:	40b4      	lsls	r4, r6
10002770:	4699      	mov	r9, r3
10002772:	2202      	movs	r2, #2
10002774:	0023      	movs	r3, r4
10002776:	40b2      	lsls	r2, r6
10002778:	0038      	movs	r0, r7
1000277a:	4649      	mov	r1, r9
1000277c:	f000 fb14 	bl	10002da8 <pio_sm_set_pins_with_mask>
10002780:	2201      	movs	r2, #1
10002782:	0023      	movs	r3, r4
10002784:	4252      	negs	r2, r2
10002786:	0038      	movs	r0, r7
10002788:	4649      	mov	r1, r9
1000278a:	f000 fb61 	bl	10002e50 <pio_sm_set_pindirs_with_mask>
1000278e:	4b43      	ldr	r3, [pc, #268]	@ (1000289c <dvi_serialiser_init+0x178>)
10002790:	0030      	movs	r0, r6
10002792:	18fc      	adds	r4, r7, r3
10002794:	1e63      	subs	r3, r4, #1
10002796:	419c      	sbcs	r4, r3
10002798:	3406      	adds	r4, #6
1000279a:	0021      	movs	r1, r4
1000279c:	f7fd fef0 	bl	10000580 <gpio_set_function>
100027a0:	0021      	movs	r1, r4
100027a2:	1c70      	adds	r0, r6, #1
100027a4:	f7fd feec 	bl	10000580 <gpio_set_function>
100027a8:	2380      	movs	r3, #128	@ 0x80
100027aa:	025b      	lsls	r3, r3, #9
100027ac:	9302      	str	r3, [sp, #8]
100027ae:	9b01      	ldr	r3, [sp, #4]
100027b0:	02b6      	lsls	r6, r6, #10
100027b2:	9303      	str	r3, [sp, #12]
100027b4:	2380      	movs	r3, #128	@ 0x80
100027b6:	05db      	lsls	r3, r3, #23
100027b8:	4333      	orrs	r3, r6
100027ba:	9305      	str	r3, [sp, #20]
100027bc:	4b38      	ldr	r3, [pc, #224]	@ (100028a0 <dvi_serialiser_init+0x17c>)
100027be:	0038      	movs	r0, r7
100027c0:	4652      	mov	r2, sl
100027c2:	4649      	mov	r1, r9
100027c4:	9304      	str	r3, [sp, #16]
100027c6:	ab02      	add	r3, sp, #8
100027c8:	f000 fb96 	bl	10002ef8 <pio_sm_init>
100027cc:	4649      	mov	r1, r9
100027ce:	2201      	movs	r2, #1
100027d0:	408a      	lsls	r2, r1
100027d2:	683b      	ldr	r3, [r7, #0]
100027d4:	2680      	movs	r6, #128	@ 0x80
100027d6:	4393      	bics	r3, r2
100027d8:	4a32      	ldr	r2, [pc, #200]	@ (100028a4 <dvi_serialiser_init+0x180>)
100027da:	603b      	str	r3, [r7, #0]
100027dc:	2720      	movs	r7, #32
100027de:	4643      	mov	r3, r8
100027e0:	4694      	mov	ip, r2
100027e2:	2471      	movs	r4, #113	@ 0x71
100027e4:	68e8      	ldr	r0, [r5, #12]
100027e6:	5dd9      	ldrb	r1, [r3, r7]
100027e8:	0083      	lsls	r3, r0, #2
100027ea:	4463      	add	r3, ip
100027ec:	681a      	ldr	r2, [r3, #0]
100027ee:	0176      	lsls	r6, r6, #5
100027f0:	4022      	ands	r2, r4
100027f2:	4333      	orrs	r3, r6
100027f4:	601a      	str	r2, [r3, #0]
100027f6:	f7fd fedb 	bl	100005b0 <gpio_set_outover>
100027fa:	4a2a      	ldr	r2, [pc, #168]	@ (100028a4 <dvi_serialiser_init+0x180>)
100027fc:	4643      	mov	r3, r8
100027fe:	4694      	mov	ip, r2
10002800:	68e8      	ldr	r0, [r5, #12]
10002802:	5dd9      	ldrb	r1, [r3, r7]
10002804:	3001      	adds	r0, #1
10002806:	0083      	lsls	r3, r0, #2
10002808:	4463      	add	r3, ip
1000280a:	681a      	ldr	r2, [r3, #0]
1000280c:	4333      	orrs	r3, r6
1000280e:	4014      	ands	r4, r2
10002810:	601c      	str	r4, [r3, #0]
10002812:	3504      	adds	r5, #4
10002814:	f7fd fecc 	bl	100005b0 <gpio_set_outover>
10002818:	455d      	cmp	r5, fp
1000281a:	d19e      	bne.n	1000275a <dvi_serialiser_init+0x36>
1000281c:	4644      	mov	r4, r8
1000281e:	69e5      	ldr	r5, [r4, #28]
10002820:	072a      	lsls	r2, r5, #28
10002822:	0f52      	lsrs	r2, r2, #29
10002824:	0093      	lsls	r3, r2, #2
10002826:	189b      	adds	r3, r3, r2
10002828:	4a1f      	ldr	r2, [pc, #124]	@ (100028a8 <dvi_serialiser_init+0x184>)
1000282a:	009b      	lsls	r3, r3, #2
1000282c:	4694      	mov	ip, r2
1000282e:	2200      	movs	r2, #0
10002830:	4463      	add	r3, ip
10002832:	601a      	str	r2, [r3, #0]
10002834:	609a      	str	r2, [r3, #8]
10002836:	60da      	str	r2, [r3, #12]
10002838:	3209      	adds	r2, #9
1000283a:	611a      	str	r2, [r3, #16]
1000283c:	3207      	adds	r2, #7
1000283e:	605a      	str	r2, [r3, #4]
10002840:	3a0c      	subs	r2, #12
10002842:	601a      	str	r2, [r3, #0]
10002844:	4a19      	ldr	r2, [pc, #100]	@ (100028ac <dvi_serialiser_init+0x188>)
10002846:	60da      	str	r2, [r3, #12]
10002848:	1c6b      	adds	r3, r5, #1
1000284a:	d01c      	beq.n	10002886 <dvi_serialiser_init+0x162>
1000284c:	4b15      	ldr	r3, [pc, #84]	@ (100028a4 <dvi_serialiser_init+0x180>)
1000284e:	00af      	lsls	r7, r5, #2
10002850:	469c      	mov	ip, r3
10002852:	2320      	movs	r3, #32
10002854:	4699      	mov	r9, r3
10002856:	3351      	adds	r3, #81	@ 0x51
10002858:	4698      	mov	r8, r3
1000285a:	4467      	add	r7, ip
1000285c:	0028      	movs	r0, r5
1000285e:	2104      	movs	r1, #4
10002860:	f7fd fe8e 	bl	10000580 <gpio_set_function>
10002864:	464b      	mov	r3, r9
10002866:	4642      	mov	r2, r8
10002868:	5ce1      	ldrb	r1, [r4, r3]
1000286a:	683b      	ldr	r3, [r7, #0]
1000286c:	0028      	movs	r0, r5
1000286e:	4013      	ands	r3, r2
10002870:	0032      	movs	r2, r6
10002872:	433a      	orrs	r2, r7
10002874:	6013      	str	r3, [r2, #0]
10002876:	f7fd fe9b 	bl	100005b0 <gpio_set_outover>
1000287a:	69e3      	ldr	r3, [r4, #28]
1000287c:	3501      	adds	r5, #1
1000287e:	3301      	adds	r3, #1
10002880:	3704      	adds	r7, #4
10002882:	42ab      	cmp	r3, r5
10002884:	d2ea      	bcs.n	1000285c <dvi_serialiser_init+0x138>
10002886:	b007      	add	sp, #28
10002888:	bcf0      	pop	{r4, r5, r6, r7}
1000288a:	46bb      	mov	fp, r7
1000288c:	46b2      	mov	sl, r6
1000288e:	46a9      	mov	r9, r5
10002890:	46a0      	mov	r8, r4
10002892:	bdf0      	pop	{r4, r5, r6, r7, pc}
10002894:	10003c68 	.word	0x10003c68
10002898:	9fffffff 	.word	0x9fffffff
1000289c:	afe00000 	.word	0xafe00000
100028a0:	680e0000 	.word	0x680e0000
100028a4:	4001c004 	.word	0x4001c004
100028a8:	40050000 	.word	0x40050000
100028ac:	00050005 	.word	0x00050005

100028b0 <dvi_serialiser_enable>:
100028b0:	2201      	movs	r2, #1
100028b2:	b530      	push	{r4, r5, lr}
100028b4:	0014      	movs	r4, r2
100028b6:	6843      	ldr	r3, [r0, #4]
100028b8:	0015      	movs	r5, r2
100028ba:	409c      	lsls	r4, r3
100028bc:	0023      	movs	r3, r4
100028be:	6884      	ldr	r4, [r0, #8]
100028c0:	40a5      	lsls	r5, r4
100028c2:	432b      	orrs	r3, r5
100028c4:	0015      	movs	r5, r2
100028c6:	68c4      	ldr	r4, [r0, #12]
100028c8:	40a5      	lsls	r5, r4
100028ca:	002c      	movs	r4, r5
100028cc:	6805      	ldr	r5, [r0, #0]
100028ce:	69c0      	ldr	r0, [r0, #28]
100028d0:	431c      	orrs	r4, r3
100028d2:	0700      	lsls	r0, r0, #28
100028d4:	0f40      	lsrs	r0, r0, #29
100028d6:	0083      	lsls	r3, r0, #2
100028d8:	181b      	adds	r3, r3, r0
100028da:	480c      	ldr	r0, [pc, #48]	@ (1000290c <dvi_serialiser_enable+0x5c>)
100028dc:	009b      	lsls	r3, r3, #2
100028de:	4684      	mov	ip, r0
100028e0:	2080      	movs	r0, #128	@ 0x80
100028e2:	4463      	add	r3, ip
100028e4:	0140      	lsls	r0, r0, #5
100028e6:	4318      	orrs	r0, r3
100028e8:	2900      	cmp	r1, #0
100028ea:	d007      	beq.n	100028fc <dvi_serialiser_enable+0x4c>
100028ec:	2180      	movs	r1, #128	@ 0x80
100028ee:	0189      	lsls	r1, r1, #6
100028f0:	4329      	orrs	r1, r5
100028f2:	600c      	str	r4, [r1, #0]
100028f4:	681b      	ldr	r3, [r3, #0]
100028f6:	439a      	bics	r2, r3
100028f8:	6002      	str	r2, [r0, #0]
100028fa:	bd30      	pop	{r4, r5, pc}
100028fc:	21c0      	movs	r1, #192	@ 0xc0
100028fe:	0189      	lsls	r1, r1, #6
10002900:	4329      	orrs	r1, r5
10002902:	600c      	str	r4, [r1, #0]
10002904:	681b      	ldr	r3, [r3, #0]
10002906:	401a      	ands	r2, r3
10002908:	6002      	str	r2, [r0, #0]
1000290a:	e7f6      	b.n	100028fa <dvi_serialiser_enable+0x4a>
1000290c:	40050000 	.word	0x40050000

10002910 <dvi_timing_state_init>:
10002910:	2300      	movs	r3, #0
10002912:	6003      	str	r3, [r0, #0]
10002914:	7103      	strb	r3, [r0, #4]
10002916:	4770      	bx	lr

10002918 <dvi_setup_scanline_for_vblank>:
10002918:	b5f0      	push	{r4, r5, r6, r7, lr}
1000291a:	4657      	mov	r7, sl
1000291c:	464e      	mov	r6, r9
1000291e:	4645      	mov	r5, r8
10002920:	46de      	mov	lr, fp
10002922:	b5e0      	push	{r5, r6, r7, lr}
10002924:	7d06      	ldrb	r6, [r0, #20]
10002926:	2401      	movs	r4, #1
10002928:	1ab6      	subs	r6, r6, r2
1000292a:	4272      	negs	r2, r6
1000292c:	4156      	adcs	r6, r2
1000292e:	4a3c      	ldr	r2, [pc, #240]	@ (10002a20 <dvi_setup_scanline_for_vblank+0x108>)
10002930:	7805      	ldrb	r5, [r0, #0]
10002932:	4690      	mov	r8, r2
10002934:	b085      	sub	sp, #20
10002936:	0076      	lsls	r6, r6, #1
10002938:	9202      	str	r2, [sp, #8]
1000293a:	406c      	eors	r4, r5
1000293c:	4334      	orrs	r4, r6
1000293e:	4335      	orrs	r5, r6
10002940:	9e02      	ldr	r6, [sp, #8]
10002942:	688f      	ldr	r7, [r1, #8]
10002944:	00a4      	lsls	r4, r4, #2
10002946:	4444      	add	r4, r8
10002948:	46b0      	mov	r8, r6
1000294a:	46bc      	mov	ip, r7
1000294c:	6842      	ldr	r2, [r0, #4]
1000294e:	605f      	str	r7, [r3, #4]
10002950:	9203      	str	r2, [sp, #12]
10002952:	0852      	lsrs	r2, r2, #1
10002954:	609a      	str	r2, [r3, #8]
10002956:	684a      	ldr	r2, [r1, #4]
10002958:	4f32      	ldr	r7, [pc, #200]	@ (10002a24 <dvi_setup_scanline_for_vblank+0x10c>)
1000295a:	02d2      	lsls	r2, r2, #11
1000295c:	403a      	ands	r2, r7
1000295e:	46ba      	mov	sl, r7
10002960:	68cf      	ldr	r7, [r1, #12]
10002962:	00ad      	lsls	r5, r5, #2
10002964:	03ff      	lsls	r7, r7, #15
10002966:	433a      	orrs	r2, r7
10002968:	4f2f      	ldr	r7, [pc, #188]	@ (10002a28 <dvi_setup_scanline_for_vblank+0x110>)
1000296a:	4445      	add	r5, r8
1000296c:	403a      	ands	r2, r7
1000296e:	46b9      	mov	r9, r7
10002970:	680f      	ldr	r7, [r1, #0]
10002972:	4666      	mov	r6, ip
10002974:	02ff      	lsls	r7, r7, #11
10002976:	433a      	orrs	r2, r7
10002978:	4f2c      	ldr	r7, [pc, #176]	@ (10002a2c <dvi_setup_scanline_for_vblank+0x114>)
1000297a:	601c      	str	r4, [r3, #0]
1000297c:	9701      	str	r7, [sp, #4]
1000297e:	4317      	orrs	r7, r2
10002980:	46bb      	mov	fp, r7
10002982:	60df      	str	r7, [r3, #12]
10002984:	6887      	ldr	r7, [r0, #8]
10002986:	611d      	str	r5, [r3, #16]
10002988:	4665      	mov	r5, ip
1000298a:	615d      	str	r5, [r3, #20]
1000298c:	087d      	lsrs	r5, r7, #1
1000298e:	619d      	str	r5, [r3, #24]
10002990:	465d      	mov	r5, fp
10002992:	61dd      	str	r5, [r3, #28]
10002994:	68c5      	ldr	r5, [r0, #12]
10002996:	625e      	str	r6, [r3, #36]	@ 0x24
10002998:	086e      	lsrs	r6, r5, #1
1000299a:	629e      	str	r6, [r3, #40]	@ 0x28
1000299c:	4e24      	ldr	r6, [pc, #144]	@ (10002a30 <dvi_setup_scanline_for_vblank+0x118>)
1000299e:	621c      	str	r4, [r3, #32]
100029a0:	4032      	ands	r2, r6
100029a2:	2699      	movs	r6, #153	@ 0x99
100029a4:	4332      	orrs	r2, r6
100029a6:	62da      	str	r2, [r3, #44]	@ 0x2c
100029a8:	6902      	ldr	r2, [r0, #16]
100029aa:	631c      	str	r4, [r3, #48]	@ 0x30
100029ac:	4664      	mov	r4, ip
100029ae:	635c      	str	r4, [r3, #52]	@ 0x34
100029b0:	465c      	mov	r4, fp
100029b2:	46bc      	mov	ip, r7
100029b4:	0852      	lsrs	r2, r2, #1
100029b6:	639a      	str	r2, [r3, #56]	@ 0x38
100029b8:	63dc      	str	r4, [r3, #60]	@ 0x3c
100029ba:	9803      	ldr	r0, [sp, #12]
100029bc:	001c      	movs	r4, r3
100029be:	4460      	add	r0, ip
100029c0:	3360      	adds	r3, #96	@ 0x60
100029c2:	1945      	adds	r5, r0, r5
100029c4:	4690      	mov	r8, r2
100029c6:	2001      	movs	r0, #1
100029c8:	001a      	movs	r2, r3
100029ca:	0003      	movs	r3, r0
100029cc:	4694      	mov	ip, r2
100029ce:	9f02      	ldr	r7, [sp, #8]
100029d0:	086d      	lsrs	r5, r5, #1
100029d2:	3110      	adds	r1, #16
100029d4:	3440      	adds	r4, #64	@ 0x40
100029d6:	4652      	mov	r2, sl
100029d8:	6848      	ldr	r0, [r1, #4]
100029da:	6027      	str	r7, [r4, #0]
100029dc:	02c0      	lsls	r0, r0, #11
100029de:	4010      	ands	r0, r2
100029e0:	68ca      	ldr	r2, [r1, #12]
100029e2:	688e      	ldr	r6, [r1, #8]
100029e4:	03d2      	lsls	r2, r2, #15
100029e6:	4310      	orrs	r0, r2
100029e8:	464a      	mov	r2, r9
100029ea:	4010      	ands	r0, r2
100029ec:	680a      	ldr	r2, [r1, #0]
100029ee:	6066      	str	r6, [r4, #4]
100029f0:	02d2      	lsls	r2, r2, #11
100029f2:	4310      	orrs	r0, r2
100029f4:	9a01      	ldr	r2, [sp, #4]
100029f6:	60a5      	str	r5, [r4, #8]
100029f8:	4310      	orrs	r0, r2
100029fa:	4642      	mov	r2, r8
100029fc:	60e0      	str	r0, [r4, #12]
100029fe:	6127      	str	r7, [r4, #16]
10002a00:	6166      	str	r6, [r4, #20]
10002a02:	61a2      	str	r2, [r4, #24]
10002a04:	61e0      	str	r0, [r4, #28]
10002a06:	2b02      	cmp	r3, #2
10002a08:	d003      	beq.n	10002a12 <dvi_setup_scanline_for_vblank+0xfa>
10002a0a:	4664      	mov	r4, ip
10002a0c:	2302      	movs	r3, #2
10002a0e:	3110      	adds	r1, #16
10002a10:	e7e1      	b.n	100029d6 <dvi_setup_scanline_for_vblank+0xbe>
10002a12:	b005      	add	sp, #20
10002a14:	bcf0      	pop	{r4, r5, r6, r7}
10002a16:	46bb      	mov	fp, r7
10002a18:	46b2      	mov	sl, r6
10002a1a:	46a9      	mov	r9, r5
10002a1c:	46a0      	mov	r8, r4
10002a1e:	bdf0      	pop	{r4, r5, r6, r7, pc}
10002a20:	20000bb8 	.word	0x20000bb8
10002a24:	ff007ffd 	.word	0xff007ffd
10002a28:	ffff87ff 	.word	0xffff87ff
10002a2c:	00200099 	.word	0x00200099
10002a30:	ffdfffff 	.word	0xffdfffff

10002a34 <dvi_setup_scanline_for_active>:
10002a34:	b5f0      	push	{r4, r5, r6, r7, lr}
10002a36:	4657      	mov	r7, sl
10002a38:	464e      	mov	r6, r9
10002a3a:	4645      	mov	r5, r8
10002a3c:	46de      	mov	lr, fp
10002a3e:	2401      	movs	r4, #1
10002a40:	4692      	mov	sl, r2
10002a42:	7802      	ldrb	r2, [r0, #0]
10002a44:	b5e0      	push	{r5, r6, r7, lr}
10002a46:	4694      	mov	ip, r2
10002a48:	7d02      	ldrb	r2, [r0, #20]
10002a4a:	b087      	sub	sp, #28
10002a4c:	4062      	eors	r2, r4
10002a4e:	b2d2      	uxtb	r2, r2
10002a50:	0052      	lsls	r2, r2, #1
10002a52:	4690      	mov	r8, r2
10002a54:	4662      	mov	r2, ip
10002a56:	4054      	eors	r4, r2
10002a58:	4642      	mov	r2, r8
10002a5a:	b2e4      	uxtb	r4, r4
10002a5c:	4314      	orrs	r4, r2
10002a5e:	4a5b      	ldr	r2, [pc, #364]	@ (10002bcc <dvi_setup_scanline_for_active+0x198>)
10002a60:	00a4      	lsls	r4, r4, #2
10002a62:	4691      	mov	r9, r2
10002a64:	9200      	str	r2, [sp, #0]
10002a66:	0022      	movs	r2, r4
10002a68:	6845      	ldr	r5, [r0, #4]
10002a6a:	688e      	ldr	r6, [r1, #8]
10002a6c:	444a      	add	r2, r9
10002a6e:	9203      	str	r2, [sp, #12]
10002a70:	46b1      	mov	r9, r6
10002a72:	601a      	str	r2, [r3, #0]
10002a74:	605e      	str	r6, [r3, #4]
10002a76:	086a      	lsrs	r2, r5, #1
10002a78:	684e      	ldr	r6, [r1, #4]
10002a7a:	609a      	str	r2, [r3, #8]
10002a7c:	4f54      	ldr	r7, [pc, #336]	@ (10002bd0 <dvi_setup_scanline_for_active+0x19c>)
10002a7e:	68ca      	ldr	r2, [r1, #12]
10002a80:	02f4      	lsls	r4, r6, #11
10002a82:	03d2      	lsls	r2, r2, #15
10002a84:	9502      	str	r5, [sp, #8]
10002a86:	9405      	str	r4, [sp, #20]
10002a88:	680d      	ldr	r5, [r1, #0]
10002a8a:	4027      	ands	r7, r4
10002a8c:	4c51      	ldr	r4, [pc, #324]	@ (10002bd4 <dvi_setup_scanline_for_active+0x1a0>)
10002a8e:	4317      	orrs	r7, r2
10002a90:	02ed      	lsls	r5, r5, #11
10002a92:	46a3      	mov	fp, r4
10002a94:	4027      	ands	r7, r4
10002a96:	4c50      	ldr	r4, [pc, #320]	@ (10002bd8 <dvi_setup_scanline_for_active+0x1a4>)
10002a98:	432f      	orrs	r7, r5
10002a9a:	433c      	orrs	r4, r7
10002a9c:	9404      	str	r4, [sp, #16]
10002a9e:	60dc      	str	r4, [r3, #12]
10002aa0:	6884      	ldr	r4, [r0, #8]
10002aa2:	4646      	mov	r6, r8
10002aa4:	9401      	str	r4, [sp, #4]
10002aa6:	4664      	mov	r4, ip
10002aa8:	4334      	orrs	r4, r6
10002aaa:	00a6      	lsls	r6, r4, #2
10002aac:	9c00      	ldr	r4, [sp, #0]
10002aae:	46b4      	mov	ip, r6
10002ab0:	46a0      	mov	r8, r4
10002ab2:	44c4      	add	ip, r8
10002ab4:	4666      	mov	r6, ip
10002ab6:	611e      	str	r6, [r3, #16]
10002ab8:	464e      	mov	r6, r9
10002aba:	9c01      	ldr	r4, [sp, #4]
10002abc:	615e      	str	r6, [r3, #20]
10002abe:	0866      	lsrs	r6, r4, #1
10002ac0:	619e      	str	r6, [r3, #24]
10002ac2:	68c6      	ldr	r6, [r0, #12]
10002ac4:	9c04      	ldr	r4, [sp, #16]
10002ac6:	46b4      	mov	ip, r6
10002ac8:	9e03      	ldr	r6, [sp, #12]
10002aca:	61dc      	str	r4, [r3, #28]
10002acc:	621e      	str	r6, [r3, #32]
10002ace:	464e      	mov	r6, r9
10002ad0:	625e      	str	r6, [r3, #36]	@ 0x24
10002ad2:	4666      	mov	r6, ip
10002ad4:	0874      	lsrs	r4, r6, #1
10002ad6:	629c      	str	r4, [r3, #40]	@ 0x28
10002ad8:	4c40      	ldr	r4, [pc, #256]	@ (10002bdc <dvi_setup_scanline_for_active+0x1a8>)
10002ada:	2660      	movs	r6, #96	@ 0x60
10002adc:	403c      	ands	r4, r7
10002ade:	2799      	movs	r7, #153	@ 0x99
10002ae0:	433c      	orrs	r4, r7
10002ae2:	9f01      	ldr	r7, [sp, #4]
10002ae4:	62dc      	str	r4, [r3, #44]	@ 0x2c
10002ae6:	46b8      	mov	r8, r7
10002ae8:	9c02      	ldr	r4, [sp, #8]
10002aea:	4f39      	ldr	r7, [pc, #228]	@ (10002bd0 <dvi_setup_scanline_for_active+0x19c>)
10002aec:	4444      	add	r4, r8
10002aee:	4464      	add	r4, ip
10002af0:	4694      	mov	ip, r2
10002af2:	002a      	movs	r2, r5
10002af4:	9d05      	ldr	r5, [sp, #20]
10002af6:	0864      	lsrs	r4, r4, #1
10002af8:	403d      	ands	r5, r7
10002afa:	4667      	mov	r7, ip
10002afc:	46a0      	mov	r8, r4
10002afe:	46b1      	mov	r9, r6
10002b00:	6904      	ldr	r4, [r0, #16]
10002b02:	433d      	orrs	r5, r7
10002b04:	2000      	movs	r0, #0
10002b06:	465f      	mov	r7, fp
10002b08:	4656      	mov	r6, sl
10002b0a:	3108      	adds	r1, #8
10002b0c:	46c2      	mov	sl, r8
10002b0e:	0864      	lsrs	r4, r4, #1
10002b10:	4499      	add	r9, r3
10002b12:	9301      	str	r3, [sp, #4]
10002b14:	403d      	ands	r5, r7
10002b16:	2800      	cmp	r0, #0
10002b18:	d037      	beq.n	10002b8a <dvi_setup_scanline_for_active+0x156>
10002b1a:	464f      	mov	r7, r9
10002b1c:	2801      	cmp	r0, #1
10002b1e:	d102      	bne.n	10002b26 <dvi_setup_scanline_for_active+0xf2>
10002b20:	9b01      	ldr	r3, [sp, #4]
10002b22:	3340      	adds	r3, #64	@ 0x40
10002b24:	001f      	movs	r7, r3
10002b26:	9b00      	ldr	r3, [sp, #0]
10002b28:	4315      	orrs	r5, r2
10002b2a:	603b      	str	r3, [r7, #0]
10002b2c:	680b      	ldr	r3, [r1, #0]
10002b2e:	4a2a      	ldr	r2, [pc, #168]	@ (10002bd8 <dvi_setup_scanline_for_active+0x1a4>)
10002b30:	607b      	str	r3, [r7, #4]
10002b32:	4653      	mov	r3, sl
10002b34:	60bb      	str	r3, [r7, #8]
10002b36:	2310      	movs	r3, #16
10002b38:	432a      	orrs	r2, r5
10002b3a:	4698      	mov	r8, r3
10002b3c:	60fa      	str	r2, [r7, #12]
10002b3e:	003a      	movs	r2, r7
10002b40:	4442      	add	r2, r8
10002b42:	2e00      	cmp	r6, #0
10002b44:	d029      	beq.n	10002b9a <dvi_setup_scanline_for_active+0x166>
10002b46:	0027      	movs	r7, r4
10002b48:	4347      	muls	r7, r0
10002b4a:	00bf      	lsls	r7, r7, #2
10002b4c:	46bc      	mov	ip, r7
10002b4e:	44b4      	add	ip, r6
10002b50:	4667      	mov	r7, ip
10002b52:	6017      	str	r7, [r2, #0]
10002b54:	680f      	ldr	r7, [r1, #0]
10002b56:	3001      	adds	r0, #1
10002b58:	46bc      	mov	ip, r7
10002b5a:	4f21      	ldr	r7, [pc, #132]	@ (10002be0 <dvi_setup_scanline_for_active+0x1ac>)
10002b5c:	6094      	str	r4, [r2, #8]
10002b5e:	433d      	orrs	r5, r7
10002b60:	4667      	mov	r7, ip
10002b62:	60d5      	str	r5, [r2, #12]
10002b64:	6057      	str	r7, [r2, #4]
10002b66:	2803      	cmp	r0, #3
10002b68:	d029      	beq.n	10002bbe <dvi_setup_scanline_for_active+0x18a>
10002b6a:	694a      	ldr	r2, [r1, #20]
10002b6c:	688f      	ldr	r7, [r1, #8]
10002b6e:	03d2      	lsls	r2, r2, #15
10002b70:	4694      	mov	ip, r2
10002b72:	68cd      	ldr	r5, [r1, #12]
10002b74:	02fa      	lsls	r2, r7, #11
10002b76:	4f16      	ldr	r7, [pc, #88]	@ (10002bd0 <dvi_setup_scanline_for_active+0x19c>)
10002b78:	02ed      	lsls	r5, r5, #11
10002b7a:	403d      	ands	r5, r7
10002b7c:	4667      	mov	r7, ip
10002b7e:	433d      	orrs	r5, r7
10002b80:	465f      	mov	r7, fp
10002b82:	3110      	adds	r1, #16
10002b84:	403d      	ands	r5, r7
10002b86:	2800      	cmp	r0, #0
10002b88:	d1c7      	bne.n	10002b1a <dvi_setup_scanline_for_active+0xe6>
10002b8a:	2330      	movs	r3, #48	@ 0x30
10002b8c:	9f01      	ldr	r7, [sp, #4]
10002b8e:	4698      	mov	r8, r3
10002b90:	4315      	orrs	r5, r2
10002b92:	003a      	movs	r2, r7
10002b94:	4442      	add	r2, r8
10002b96:	2e00      	cmp	r6, #0
10002b98:	d1d5      	bne.n	10002b46 <dvi_setup_scanline_for_active+0x112>
10002b9a:	0083      	lsls	r3, r0, #2
10002b9c:	469c      	mov	ip, r3
10002b9e:	4b11      	ldr	r3, [pc, #68]	@ (10002be4 <dvi_setup_scanline_for_active+0x1b0>)
10002ba0:	3001      	adds	r0, #1
10002ba2:	4698      	mov	r8, r3
10002ba4:	44c4      	add	ip, r8
10002ba6:	4663      	mov	r3, ip
10002ba8:	6013      	str	r3, [r2, #0]
10002baa:	680b      	ldr	r3, [r1, #0]
10002bac:	6094      	str	r4, [r2, #8]
10002bae:	469c      	mov	ip, r3
10002bb0:	4667      	mov	r7, ip
10002bb2:	4b09      	ldr	r3, [pc, #36]	@ (10002bd8 <dvi_setup_scanline_for_active+0x1a4>)
10002bb4:	6057      	str	r7, [r2, #4]
10002bb6:	431d      	orrs	r5, r3
10002bb8:	60d5      	str	r5, [r2, #12]
10002bba:	2803      	cmp	r0, #3
10002bbc:	d1d5      	bne.n	10002b6a <dvi_setup_scanline_for_active+0x136>
10002bbe:	b007      	add	sp, #28
10002bc0:	bcf0      	pop	{r4, r5, r6, r7}
10002bc2:	46bb      	mov	fp, r7
10002bc4:	46b2      	mov	sl, r6
10002bc6:	46a9      	mov	r9, r5
10002bc8:	46a0      	mov	r8, r4
10002bca:	bdf0      	pop	{r4, r5, r6, r7, pc}
10002bcc:	20000bb8 	.word	0x20000bb8
10002bd0:	ff007ffd 	.word	0xff007ffd
10002bd4:	ffff87ff 	.word	0xffff87ff
10002bd8:	00200099 	.word	0x00200099
10002bdc:	ffdfffff 	.word	0xffdfffff
10002be0:	00200019 	.word	0x00200019
10002be4:	20000bac 	.word	0x20000bac

10002be8 <dma_claim_unused_channel>:
10002be8:	b510      	push	{r4, lr}
10002bea:	4b06      	ldr	r3, [pc, #24]	@ (10002c04 <dma_claim_unused_channel+0x1c>)
10002bec:	4c06      	ldr	r4, [pc, #24]	@ (10002c08 <dma_claim_unused_channel+0x20>)
10002bee:	b082      	sub	sp, #8
10002bf0:	0001      	movs	r1, r0
10002bf2:	9300      	str	r3, [sp, #0]
10002bf4:	2200      	movs	r2, #0
10002bf6:	230b      	movs	r3, #11
10002bf8:	0020      	movs	r0, r4
10002bfa:	f7fd fd2b 	bl	10000654 <hw_claim_unused_from_range>
10002bfe:	b002      	add	sp, #8
10002c00:	bd10      	pop	{r4, pc}
10002c02:	46c0      	nop			@ (mov r8, r8)
10002c04:	10003bc8 	.word	0x10003bc8
10002c08:	200150a8 	.word	0x200150a8

10002c0c <interp_save>:
10002c0c:	6803      	ldr	r3, [r0, #0]
10002c0e:	600b      	str	r3, [r1, #0]
10002c10:	6843      	ldr	r3, [r0, #4]
10002c12:	604b      	str	r3, [r1, #4]
10002c14:	6883      	ldr	r3, [r0, #8]
10002c16:	608b      	str	r3, [r1, #8]
10002c18:	68c3      	ldr	r3, [r0, #12]
10002c1a:	60cb      	str	r3, [r1, #12]
10002c1c:	6903      	ldr	r3, [r0, #16]
10002c1e:	610b      	str	r3, [r1, #16]
10002c20:	6ac3      	ldr	r3, [r0, #44]	@ 0x2c
10002c22:	614b      	str	r3, [r1, #20]
10002c24:	6b03      	ldr	r3, [r0, #48]	@ 0x30
10002c26:	618b      	str	r3, [r1, #24]
10002c28:	4770      	bx	lr
10002c2a:	46c0      	nop			@ (mov r8, r8)

10002c2c <interp_restore>:
10002c2c:	680b      	ldr	r3, [r1, #0]
10002c2e:	6003      	str	r3, [r0, #0]
10002c30:	684b      	ldr	r3, [r1, #4]
10002c32:	6043      	str	r3, [r0, #4]
10002c34:	688b      	ldr	r3, [r1, #8]
10002c36:	6083      	str	r3, [r0, #8]
10002c38:	68cb      	ldr	r3, [r1, #12]
10002c3a:	60c3      	str	r3, [r0, #12]
10002c3c:	690b      	ldr	r3, [r1, #16]
10002c3e:	6103      	str	r3, [r0, #16]
10002c40:	694b      	ldr	r3, [r1, #20]
10002c42:	62c3      	str	r3, [r0, #44]	@ 0x2c
10002c44:	698b      	ldr	r3, [r1, #24]
10002c46:	6303      	str	r3, [r0, #48]	@ 0x30
10002c48:	4770      	bx	lr
10002c4a:	46c0      	nop			@ (mov r8, r8)

10002c4c <_pio_add_program_at_offset>:
10002c4c:	b5f0      	push	{r4, r5, r6, r7, lr}
10002c4e:	4646      	mov	r6, r8
10002c50:	46d6      	mov	lr, sl
10002c52:	464f      	mov	r7, r9
10002c54:	2305      	movs	r3, #5
10002c56:	b5c0      	push	{r6, r7, lr}
10002c58:	56cb      	ldrsb	r3, [r1, r3]
10002c5a:	790e      	ldrb	r6, [r1, #4]
10002c5c:	2b00      	cmp	r3, #0
10002c5e:	db01      	blt.n	10002c64 <_pio_add_program_at_offset+0x18>
10002c60:	429a      	cmp	r2, r3
10002c62:	d13a      	bne.n	10002cda <_pio_add_program_at_offset+0x8e>
10002c64:	4b1e      	ldr	r3, [pc, #120]	@ (10002ce0 <_pio_add_program_at_offset+0x94>)
10002c66:	18c3      	adds	r3, r0, r3
10002c68:	425c      	negs	r4, r3
10002c6a:	4163      	adcs	r3, r4
10002c6c:	009b      	lsls	r3, r3, #2
10002c6e:	4698      	mov	r8, r3
10002c70:	4c1c      	ldr	r4, [pc, #112]	@ (10002ce4 <_pio_add_program_at_offset+0x98>)
10002c72:	0023      	movs	r3, r4
10002c74:	46a2      	mov	sl, r4
10002c76:	4644      	mov	r4, r8
10002c78:	591b      	ldr	r3, [r3, r4]
10002c7a:	4699      	mov	r9, r3
10002c7c:	2301      	movs	r3, #1
10002c7e:	40b3      	lsls	r3, r6
10002c80:	3b01      	subs	r3, #1
10002c82:	4093      	lsls	r3, r2
10002c84:	464c      	mov	r4, r9
10002c86:	464d      	mov	r5, r9
10002c88:	469c      	mov	ip, r3
10002c8a:	401c      	ands	r4, r3
10002c8c:	422b      	tst	r3, r5
10002c8e:	d124      	bne.n	10002cda <_pio_add_program_at_offset+0x8e>
10002c90:	2e00      	cmp	r6, #0
10002c92:	d017      	beq.n	10002cc4 <_pio_add_program_at_offset+0x78>
10002c94:	2780      	movs	r7, #128	@ 0x80
10002c96:	784d      	ldrb	r5, [r1, #1]
10002c98:	780b      	ldrb	r3, [r1, #0]
10002c9a:	022d      	lsls	r5, r5, #8
10002c9c:	431d      	orrs	r5, r3
10002c9e:	788b      	ldrb	r3, [r1, #2]
10002ca0:	01bf      	lsls	r7, r7, #6
10002ca2:	041b      	lsls	r3, r3, #16
10002ca4:	432b      	orrs	r3, r5
10002ca6:	78cd      	ldrb	r5, [r1, #3]
10002ca8:	062d      	lsls	r5, r5, #24
10002caa:	431d      	orrs	r5, r3
10002cac:	0063      	lsls	r3, r4, #1
10002cae:	5ae9      	ldrh	r1, [r5, r3]
10002cb0:	42b9      	cmp	r1, r7
10002cb2:	d200      	bcs.n	10002cb6 <_pio_add_program_at_offset+0x6a>
10002cb4:	1889      	adds	r1, r1, r2
10002cb6:	1913      	adds	r3, r2, r4
10002cb8:	3312      	adds	r3, #18
10002cba:	009b      	lsls	r3, r3, #2
10002cbc:	3401      	adds	r4, #1
10002cbe:	5019      	str	r1, [r3, r0]
10002cc0:	42a6      	cmp	r6, r4
10002cc2:	d8f3      	bhi.n	10002cac <_pio_add_program_at_offset+0x60>
10002cc4:	464b      	mov	r3, r9
10002cc6:	4662      	mov	r2, ip
10002cc8:	4641      	mov	r1, r8
10002cca:	4313      	orrs	r3, r2
10002ccc:	4652      	mov	r2, sl
10002cce:	5053      	str	r3, [r2, r1]
10002cd0:	bce0      	pop	{r5, r6, r7}
10002cd2:	46ba      	mov	sl, r7
10002cd4:	46b1      	mov	r9, r6
10002cd6:	46a8      	mov	r8, r5
10002cd8:	bdf0      	pop	{r4, r5, r6, r7, pc}
10002cda:	4803      	ldr	r0, [pc, #12]	@ (10002ce8 <_pio_add_program_at_offset+0x9c>)
10002cdc:	f7fe fe8a 	bl	100019f4 <panic>
10002ce0:	afd00000 	.word	0xafd00000
10002ce4:	20001710 	.word	0x20001710
10002ce8:	10003be8 	.word	0x10003be8

10002cec <_pio_find_offset_for_program.isra.0>:
10002cec:	4b11      	ldr	r3, [pc, #68]	@ (10002d34 <_pio_find_offset_for_program.isra.0+0x48>)
10002cee:	b530      	push	{r4, r5, lr}
10002cf0:	18c3      	adds	r3, r0, r3
10002cf2:	4258      	negs	r0, r3
10002cf4:	4143      	adcs	r3, r0
10002cf6:	4c10      	ldr	r4, [pc, #64]	@ (10002d38 <_pio_find_offset_for_program.isra.0+0x4c>)
10002cf8:	009b      	lsls	r3, r3, #2
10002cfa:	591d      	ldr	r5, [r3, r4]
10002cfc:	2401      	movs	r4, #1
10002cfe:	2320      	movs	r3, #32
10002d00:	408c      	lsls	r4, r1
10002d02:	1a59      	subs	r1, r3, r1
10002d04:	3c01      	subs	r4, #1
10002d06:	2a00      	cmp	r2, #0
10002d08:	db09      	blt.n	10002d1e <_pio_find_offset_for_program.isra.0+0x32>
10002d0a:	0010      	movs	r0, r2
10002d0c:	428a      	cmp	r2, r1
10002d0e:	dc03      	bgt.n	10002d18 <_pio_find_offset_for_program.isra.0+0x2c>
10002d10:	4094      	lsls	r4, r2
10002d12:	4225      	tst	r5, r4
10002d14:	d100      	bne.n	10002d18 <_pio_find_offset_for_program.isra.0+0x2c>
10002d16:	bd30      	pop	{r4, r5, pc}
10002d18:	2001      	movs	r0, #1
10002d1a:	4240      	negs	r0, r0
10002d1c:	e7fb      	b.n	10002d16 <_pio_find_offset_for_program.isra.0+0x2a>
10002d1e:	2900      	cmp	r1, #0
10002d20:	da02      	bge.n	10002d28 <_pio_find_offset_for_program.isra.0+0x3c>
10002d22:	e7f9      	b.n	10002d18 <_pio_find_offset_for_program.isra.0+0x2c>
10002d24:	3901      	subs	r1, #1
10002d26:	d303      	bcc.n	10002d30 <_pio_find_offset_for_program.isra.0+0x44>
10002d28:	0023      	movs	r3, r4
10002d2a:	408b      	lsls	r3, r1
10002d2c:	421d      	tst	r5, r3
10002d2e:	d1f9      	bne.n	10002d24 <_pio_find_offset_for_program.isra.0+0x38>
10002d30:	0008      	movs	r0, r1
10002d32:	e7f0      	b.n	10002d16 <_pio_find_offset_for_program.isra.0+0x2a>
10002d34:	afd00000 	.word	0xafd00000
10002d38:	20001710 	.word	0x20001710

10002d3c <pio_sm_claim>:
10002d3c:	4b07      	ldr	r3, [pc, #28]	@ (10002d5c <pio_sm_claim+0x20>)
10002d3e:	b510      	push	{r4, lr}
10002d40:	4298      	cmp	r0, r3
10002d42:	d004      	beq.n	10002d4e <pio_sm_claim+0x12>
10002d44:	4a06      	ldr	r2, [pc, #24]	@ (10002d60 <pio_sm_claim+0x24>)
10002d46:	4807      	ldr	r0, [pc, #28]	@ (10002d64 <pio_sm_claim+0x28>)
10002d48:	f7fd fc62 	bl	10000610 <hw_claim_or_assert>
10002d4c:	bd10      	pop	{r4, pc}
10002d4e:	4a06      	ldr	r2, [pc, #24]	@ (10002d68 <pio_sm_claim+0x2c>)
10002d50:	4804      	ldr	r0, [pc, #16]	@ (10002d64 <pio_sm_claim+0x28>)
10002d52:	3104      	adds	r1, #4
10002d54:	f7fd fc5c 	bl	10000610 <hw_claim_or_assert>
10002d58:	e7f8      	b.n	10002d4c <pio_sm_claim+0x10>
10002d5a:	46c0      	nop			@ (mov r8, r8)
10002d5c:	50300000 	.word	0x50300000
10002d60:	10003c20 	.word	0x10003c20
10002d64:	200150ab 	.word	0x200150ab
10002d68:	10003bfc 	.word	0x10003bfc

10002d6c <pio_add_program>:
10002d6c:	b5f8      	push	{r3, r4, r5, r6, r7, lr}
10002d6e:	000c      	movs	r4, r1
10002d70:	0006      	movs	r6, r0
10002d72:	f7fd fc37 	bl	100005e4 <hw_claim_lock>
10002d76:	2205      	movs	r2, #5
10002d78:	0007      	movs	r7, r0
10002d7a:	56a2      	ldrsb	r2, [r4, r2]
10002d7c:	0030      	movs	r0, r6
10002d7e:	7921      	ldrb	r1, [r4, #4]
10002d80:	f7ff ffb4 	bl	10002cec <_pio_find_offset_for_program.isra.0>
10002d84:	1e05      	subs	r5, r0, #0
10002d86:	db09      	blt.n	10002d9c <pio_add_program+0x30>
10002d88:	0002      	movs	r2, r0
10002d8a:	0021      	movs	r1, r4
10002d8c:	0030      	movs	r0, r6
10002d8e:	f7ff ff5d 	bl	10002c4c <_pio_add_program_at_offset>
10002d92:	0038      	movs	r0, r7
10002d94:	f7fd fc32 	bl	100005fc <hw_claim_unlock>
10002d98:	0028      	movs	r0, r5
10002d9a:	bdf8      	pop	{r3, r4, r5, r6, r7, pc}
10002d9c:	4801      	ldr	r0, [pc, #4]	@ (10002da4 <pio_add_program+0x38>)
10002d9e:	f7fe fe29 	bl	100019f4 <panic>
10002da2:	46c0      	nop			@ (mov r8, r8)
10002da4:	10003be8 	.word	0x10003be8

10002da8 <pio_sm_set_pins_with_mask>:
10002da8:	b5f0      	push	{r4, r5, r6, r7, lr}
10002daa:	46de      	mov	lr, fp
10002dac:	4657      	mov	r7, sl
10002dae:	464e      	mov	r6, r9
10002db0:	4645      	mov	r5, r8
10002db2:	b5e0      	push	{r5, r6, r7, lr}
10002db4:	0016      	movs	r6, r2
10002db6:	22dc      	movs	r2, #220	@ 0xdc
10002db8:	4692      	mov	sl, r2
10002dba:	b085      	sub	sp, #20
10002dbc:	001c      	movs	r4, r3
10002dbe:	004b      	lsls	r3, r1, #1
10002dc0:	9302      	str	r3, [sp, #8]
10002dc2:	185b      	adds	r3, r3, r1
10002dc4:	00db      	lsls	r3, r3, #3
10002dc6:	18c5      	adds	r5, r0, r3
10002dc8:	44aa      	add	sl, r5
10002dca:	4652      	mov	r2, sl
10002dcc:	4683      	mov	fp, r0
10002dce:	0028      	movs	r0, r5
10002dd0:	6812      	ldr	r2, [r2, #0]
10002dd2:	30cc      	adds	r0, #204	@ 0xcc
10002dd4:	9200      	str	r2, [sp, #0]
10002dd6:	6802      	ldr	r2, [r0, #0]
10002dd8:	20c0      	movs	r0, #192	@ 0xc0
10002dda:	33cc      	adds	r3, #204	@ 0xcc
10002ddc:	0180      	lsls	r0, r0, #6
10002dde:	445b      	add	r3, fp
10002de0:	4303      	orrs	r3, r0
10002de2:	2080      	movs	r0, #128	@ 0x80
10002de4:	0280      	lsls	r0, r0, #10
10002de6:	9201      	str	r2, [sp, #4]
10002de8:	6018      	str	r0, [r3, #0]
10002dea:	2c00      	cmp	r4, #0
10002dec:	d01d      	beq.n	10002e2a <pio_sm_set_pins_with_mask+0x82>
10002dee:	2380      	movs	r3, #128	@ 0x80
10002df0:	04db      	lsls	r3, r3, #19
10002df2:	4699      	mov	r9, r3
10002df4:	2301      	movs	r3, #1
10002df6:	35d8      	adds	r5, #216	@ 0xd8
10002df8:	4698      	mov	r8, r3
10002dfa:	002b      	movs	r3, r5
10002dfc:	27e0      	movs	r7, #224	@ 0xe0
10002dfe:	4655      	mov	r5, sl
10002e00:	469a      	mov	sl, r3
10002e02:	023f      	lsls	r7, r7, #8
10002e04:	9103      	str	r1, [sp, #12]
10002e06:	0020      	movs	r0, r4
10002e08:	f7fe fe3a 	bl	10001a80 <__wrap___ctzsi2>
10002e0c:	464a      	mov	r2, r9
10002e0e:	0143      	lsls	r3, r0, #5
10002e10:	4313      	orrs	r3, r2
10002e12:	602b      	str	r3, [r5, #0]
10002e14:	0033      	movs	r3, r6
10002e16:	4642      	mov	r2, r8
10002e18:	40c3      	lsrs	r3, r0
10002e1a:	4013      	ands	r3, r2
10002e1c:	4652      	mov	r2, sl
10002e1e:	433b      	orrs	r3, r7
10002e20:	6013      	str	r3, [r2, #0]
10002e22:	1e63      	subs	r3, r4, #1
10002e24:	401c      	ands	r4, r3
10002e26:	d1ee      	bne.n	10002e06 <pio_sm_set_pins_with_mask+0x5e>
10002e28:	9903      	ldr	r1, [sp, #12]
10002e2a:	9b02      	ldr	r3, [sp, #8]
10002e2c:	185b      	adds	r3, r3, r1
10002e2e:	00db      	lsls	r3, r3, #3
10002e30:	445b      	add	r3, fp
10002e32:	001a      	movs	r2, r3
10002e34:	9900      	ldr	r1, [sp, #0]
10002e36:	32dc      	adds	r2, #220	@ 0xdc
10002e38:	6011      	str	r1, [r2, #0]
10002e3a:	9a01      	ldr	r2, [sp, #4]
10002e3c:	33cc      	adds	r3, #204	@ 0xcc
10002e3e:	601a      	str	r2, [r3, #0]
10002e40:	b005      	add	sp, #20
10002e42:	bcf0      	pop	{r4, r5, r6, r7}
10002e44:	46bb      	mov	fp, r7
10002e46:	46b2      	mov	sl, r6
10002e48:	46a9      	mov	r9, r5
10002e4a:	46a0      	mov	r8, r4
10002e4c:	bdf0      	pop	{r4, r5, r6, r7, pc}
10002e4e:	46c0      	nop			@ (mov r8, r8)

10002e50 <pio_sm_set_pindirs_with_mask>:
10002e50:	b5f0      	push	{r4, r5, r6, r7, lr}
10002e52:	46de      	mov	lr, fp
10002e54:	4657      	mov	r7, sl
10002e56:	464e      	mov	r6, r9
10002e58:	4645      	mov	r5, r8
10002e5a:	b5e0      	push	{r5, r6, r7, lr}
10002e5c:	0016      	movs	r6, r2
10002e5e:	22dc      	movs	r2, #220	@ 0xdc
10002e60:	4692      	mov	sl, r2
10002e62:	b085      	sub	sp, #20
10002e64:	001c      	movs	r4, r3
10002e66:	004b      	lsls	r3, r1, #1
10002e68:	9302      	str	r3, [sp, #8]
10002e6a:	185b      	adds	r3, r3, r1
10002e6c:	00db      	lsls	r3, r3, #3
10002e6e:	18c5      	adds	r5, r0, r3
10002e70:	44aa      	add	sl, r5
10002e72:	4652      	mov	r2, sl
10002e74:	4683      	mov	fp, r0
10002e76:	0028      	movs	r0, r5
10002e78:	6812      	ldr	r2, [r2, #0]
10002e7a:	30cc      	adds	r0, #204	@ 0xcc
10002e7c:	9200      	str	r2, [sp, #0]
10002e7e:	6802      	ldr	r2, [r0, #0]
10002e80:	20c0      	movs	r0, #192	@ 0xc0
10002e82:	33cc      	adds	r3, #204	@ 0xcc
10002e84:	0180      	lsls	r0, r0, #6
10002e86:	445b      	add	r3, fp
10002e88:	4303      	orrs	r3, r0
10002e8a:	2080      	movs	r0, #128	@ 0x80
10002e8c:	0280      	lsls	r0, r0, #10
10002e8e:	9201      	str	r2, [sp, #4]
10002e90:	6018      	str	r0, [r3, #0]
10002e92:	2c00      	cmp	r4, #0
10002e94:	d01c      	beq.n	10002ed0 <pio_sm_set_pindirs_with_mask+0x80>
10002e96:	2380      	movs	r3, #128	@ 0x80
10002e98:	04db      	lsls	r3, r3, #19
10002e9a:	4699      	mov	r9, r3
10002e9c:	2301      	movs	r3, #1
10002e9e:	35d8      	adds	r5, #216	@ 0xd8
10002ea0:	4698      	mov	r8, r3
10002ea2:	002b      	movs	r3, r5
10002ea4:	4655      	mov	r5, sl
10002ea6:	469a      	mov	sl, r3
10002ea8:	4f12      	ldr	r7, [pc, #72]	@ (10002ef4 <pio_sm_set_pindirs_with_mask+0xa4>)
10002eaa:	9103      	str	r1, [sp, #12]
10002eac:	0020      	movs	r0, r4
10002eae:	f7fe fde7 	bl	10001a80 <__wrap___ctzsi2>
10002eb2:	464a      	mov	r2, r9
10002eb4:	0143      	lsls	r3, r0, #5
10002eb6:	4313      	orrs	r3, r2
10002eb8:	602b      	str	r3, [r5, #0]
10002eba:	0033      	movs	r3, r6
10002ebc:	4642      	mov	r2, r8
10002ebe:	40c3      	lsrs	r3, r0
10002ec0:	4013      	ands	r3, r2
10002ec2:	4652      	mov	r2, sl
10002ec4:	433b      	orrs	r3, r7
10002ec6:	6013      	str	r3, [r2, #0]
10002ec8:	1e63      	subs	r3, r4, #1
10002eca:	401c      	ands	r4, r3
10002ecc:	d1ee      	bne.n	10002eac <pio_sm_set_pindirs_with_mask+0x5c>
10002ece:	9903      	ldr	r1, [sp, #12]
10002ed0:	9b02      	ldr	r3, [sp, #8]
10002ed2:	185b      	adds	r3, r3, r1
10002ed4:	00db      	lsls	r3, r3, #3
10002ed6:	445b      	add	r3, fp
10002ed8:	001a      	movs	r2, r3
10002eda:	9900      	ldr	r1, [sp, #0]
10002edc:	32dc      	adds	r2, #220	@ 0xdc
10002ede:	6011      	str	r1, [r2, #0]
10002ee0:	9a01      	ldr	r2, [sp, #4]
10002ee2:	33cc      	adds	r3, #204	@ 0xcc
10002ee4:	601a      	str	r2, [r3, #0]
10002ee6:	b005      	add	sp, #20
10002ee8:	bcf0      	pop	{r4, r5, r6, r7}
10002eea:	46bb      	mov	fp, r7
10002eec:	46b2      	mov	sl, r6
10002eee:	46a9      	mov	r9, r5
10002ef0:	46a0      	mov	r8, r4
10002ef2:	bdf0      	pop	{r4, r5, r6, r7, pc}
10002ef4:	0000e080 	.word	0x0000e080

10002ef8 <pio_sm_init>:
10002ef8:	b5f0      	push	{r4, r5, r6, r7, lr}
10002efa:	2501      	movs	r5, #1
10002efc:	408d      	lsls	r5, r1
10002efe:	6804      	ldr	r4, [r0, #0]
10002f00:	43ac      	bics	r4, r5
10002f02:	6004      	str	r4, [r0, #0]
10002f04:	2b00      	cmp	r3, #0
10002f06:	d02e      	beq.n	10002f66 <pio_sm_init+0x6e>
10002f08:	004d      	lsls	r5, r1, #1
10002f0a:	186c      	adds	r4, r5, r1
10002f0c:	00e4      	lsls	r4, r4, #3
10002f0e:	1904      	adds	r4, r0, r4
10002f10:	0026      	movs	r6, r4
10002f12:	681f      	ldr	r7, [r3, #0]
10002f14:	36c8      	adds	r6, #200	@ 0xc8
10002f16:	6037      	str	r7, [r6, #0]
10002f18:	685f      	ldr	r7, [r3, #4]
10002f1a:	34dc      	adds	r4, #220	@ 0xdc
10002f1c:	6077      	str	r7, [r6, #4]
10002f1e:	689f      	ldr	r7, [r3, #8]
10002f20:	68db      	ldr	r3, [r3, #12]
10002f22:	60b7      	str	r7, [r6, #8]
10002f24:	6023      	str	r3, [r4, #0]
10002f26:	186b      	adds	r3, r5, r1
10002f28:	00db      	lsls	r3, r3, #3
10002f2a:	001d      	movs	r5, r3
10002f2c:	2480      	movs	r4, #128	@ 0x80
10002f2e:	35d0      	adds	r5, #208	@ 0xd0
10002f30:	1945      	adds	r5, r0, r5
10002f32:	0164      	lsls	r4, r4, #5
10002f34:	432c      	orrs	r4, r5
10002f36:	2580      	movs	r5, #128	@ 0x80
10002f38:	062d      	lsls	r5, r5, #24
10002f3a:	6025      	str	r5, [r4, #0]
10002f3c:	6025      	str	r5, [r4, #0]
10002f3e:	2501      	movs	r5, #1
10002f40:	4c12      	ldr	r4, [pc, #72]	@ (10002f8c <pio_sm_init+0x94>)
10002f42:	002e      	movs	r6, r5
10002f44:	408c      	lsls	r4, r1
10002f46:	6084      	str	r4, [r0, #8]
10002f48:	1d0c      	adds	r4, r1, #4
10002f4a:	40a6      	lsls	r6, r4
10002f4c:	2480      	movs	r4, #128	@ 0x80
10002f4e:	3108      	adds	r1, #8
10002f50:	408d      	lsls	r5, r1
10002f52:	211f      	movs	r1, #31
10002f54:	01a4      	lsls	r4, r4, #6
10002f56:	4304      	orrs	r4, r0
10002f58:	18c0      	adds	r0, r0, r3
10002f5a:	400a      	ands	r2, r1
10002f5c:	30d8      	adds	r0, #216	@ 0xd8
10002f5e:	6026      	str	r6, [r4, #0]
10002f60:	6025      	str	r5, [r4, #0]
10002f62:	6002      	str	r2, [r0, #0]
10002f64:	bdf0      	pop	{r4, r5, r6, r7, pc}
10002f66:	004d      	lsls	r5, r1, #1
10002f68:	186c      	adds	r4, r5, r1
10002f6a:	00e4      	lsls	r4, r4, #3
10002f6c:	1904      	adds	r4, r0, r4
10002f6e:	0026      	movs	r6, r4
10002f70:	2780      	movs	r7, #128	@ 0x80
10002f72:	36c8      	adds	r6, #200	@ 0xc8
10002f74:	027f      	lsls	r7, r7, #9
10002f76:	6037      	str	r7, [r6, #0]
10002f78:	27f8      	movs	r7, #248	@ 0xf8
10002f7a:	027f      	lsls	r7, r7, #9
10002f7c:	6077      	str	r7, [r6, #4]
10002f7e:	27c0      	movs	r7, #192	@ 0xc0
10002f80:	34dc      	adds	r4, #220	@ 0xdc
10002f82:	033f      	lsls	r7, r7, #12
10002f84:	60b7      	str	r7, [r6, #8]
10002f86:	6023      	str	r3, [r4, #0]
10002f88:	e7cd      	b.n	10002f26 <pio_sm_init+0x2e>
10002f8a:	46c0      	nop			@ (mov r8, r8)
10002f8c:	01010101 	.word	0x01010101

10002f90 <atexit>:
10002f90:	b510      	push	{r4, lr}
10002f92:	0001      	movs	r1, r0
10002f94:	2300      	movs	r3, #0
10002f96:	2200      	movs	r2, #0
10002f98:	2000      	movs	r0, #0
10002f9a:	f000 fbb9 	bl	10003710 <__register_exitproc>
10002f9e:	bd10      	pop	{r4, pc}

10002fa0 <calloc>:
10002fa0:	0003      	movs	r3, r0
10002fa2:	b510      	push	{r4, lr}
10002fa4:	000a      	movs	r2, r1
10002fa6:	4903      	ldr	r1, [pc, #12]	@ (10002fb4 <calloc+0x14>)
10002fa8:	6808      	ldr	r0, [r1, #0]
10002faa:	0019      	movs	r1, r3
10002fac:	f000 f804 	bl	10002fb8 <_calloc_r>
10002fb0:	bd10      	pop	{r4, pc}
10002fb2:	46c0      	nop			@ (mov r8, r8)
10002fb4:	200011b0 	.word	0x200011b0

10002fb8 <_calloc_r>:
10002fb8:	b570      	push	{r4, r5, r6, lr}
10002fba:	0c0b      	lsrs	r3, r1, #16
10002fbc:	2400      	movs	r4, #0
10002fbe:	0c15      	lsrs	r5, r2, #16
10002fc0:	2b00      	cmp	r3, #0
10002fc2:	d128      	bne.n	10003016 <_calloc_r+0x5e>
10002fc4:	2d00      	cmp	r5, #0
10002fc6:	d13c      	bne.n	10003042 <_calloc_r+0x8a>
10002fc8:	b28b      	uxth	r3, r1
10002fca:	b291      	uxth	r1, r2
10002fcc:	4359      	muls	r1, r3
10002fce:	f000 f851 	bl	10003074 <_malloc_r>
10002fd2:	1e05      	subs	r5, r0, #0
10002fd4:	d033      	beq.n	1000303e <_calloc_r+0x86>
10002fd6:	0003      	movs	r3, r0
10002fd8:	3b08      	subs	r3, #8
10002fda:	685a      	ldr	r2, [r3, #4]
10002fdc:	2303      	movs	r3, #3
10002fde:	439a      	bics	r2, r3
10002fe0:	3a04      	subs	r2, #4
10002fe2:	2a24      	cmp	r2, #36	@ 0x24
10002fe4:	d812      	bhi.n	1000300c <_calloc_r+0x54>
10002fe6:	0003      	movs	r3, r0
10002fe8:	2a13      	cmp	r2, #19
10002fea:	d90a      	bls.n	10003002 <_calloc_r+0x4a>
10002fec:	6004      	str	r4, [r0, #0]
10002fee:	6044      	str	r4, [r0, #4]
10002ff0:	3308      	adds	r3, #8
10002ff2:	2a1b      	cmp	r2, #27
10002ff4:	d905      	bls.n	10003002 <_calloc_r+0x4a>
10002ff6:	6084      	str	r4, [r0, #8]
10002ff8:	60c4      	str	r4, [r0, #12]
10002ffa:	2a24      	cmp	r2, #36	@ 0x24
10002ffc:	d02a      	beq.n	10003054 <_calloc_r+0x9c>
10002ffe:	0003      	movs	r3, r0
10003000:	3310      	adds	r3, #16
10003002:	2200      	movs	r2, #0
10003004:	601a      	str	r2, [r3, #0]
10003006:	605a      	str	r2, [r3, #4]
10003008:	609a      	str	r2, [r3, #8]
1000300a:	e002      	b.n	10003012 <_calloc_r+0x5a>
1000300c:	2100      	movs	r1, #0
1000300e:	f7ff f893 	bl	10002138 <__wrap_memset>
10003012:	0028      	movs	r0, r5
10003014:	bd70      	pop	{r4, r5, r6, pc}
10003016:	2d00      	cmp	r5, #0
10003018:	d116      	bne.n	10003048 <_calloc_r+0x90>
1000301a:	1c15      	adds	r5, r2, #0
1000301c:	b289      	uxth	r1, r1
1000301e:	b292      	uxth	r2, r2
10003020:	434a      	muls	r2, r1
10003022:	b2ad      	uxth	r5, r5
10003024:	b29b      	uxth	r3, r3
10003026:	436b      	muls	r3, r5
10003028:	0c11      	lsrs	r1, r2, #16
1000302a:	185b      	adds	r3, r3, r1
1000302c:	0c19      	lsrs	r1, r3, #16
1000302e:	d10b      	bne.n	10003048 <_calloc_r+0x90>
10003030:	0419      	lsls	r1, r3, #16
10003032:	b292      	uxth	r2, r2
10003034:	4311      	orrs	r1, r2
10003036:	f000 f81d 	bl	10003074 <_malloc_r>
1000303a:	1e05      	subs	r5, r0, #0
1000303c:	d1cb      	bne.n	10002fd6 <_calloc_r+0x1e>
1000303e:	2500      	movs	r5, #0
10003040:	e7e7      	b.n	10003012 <_calloc_r+0x5a>
10003042:	1c2b      	adds	r3, r5, #0
10003044:	1c0d      	adds	r5, r1, #0
10003046:	e7e9      	b.n	1000301c <_calloc_r+0x64>
10003048:	f000 fb08 	bl	1000365c <__errno>
1000304c:	230c      	movs	r3, #12
1000304e:	2500      	movs	r5, #0
10003050:	6003      	str	r3, [r0, #0]
10003052:	e7de      	b.n	10003012 <_calloc_r+0x5a>
10003054:	0003      	movs	r3, r0
10003056:	6104      	str	r4, [r0, #16]
10003058:	3318      	adds	r3, #24
1000305a:	6144      	str	r4, [r0, #20]
1000305c:	e7d1      	b.n	10003002 <_calloc_r+0x4a>
1000305e:	46c0      	nop			@ (mov r8, r8)

10003060 <malloc>:
10003060:	b510      	push	{r4, lr}
10003062:	4b03      	ldr	r3, [pc, #12]	@ (10003070 <malloc+0x10>)
10003064:	0001      	movs	r1, r0
10003066:	6818      	ldr	r0, [r3, #0]
10003068:	f000 f804 	bl	10003074 <_malloc_r>
1000306c:	bd10      	pop	{r4, pc}
1000306e:	46c0      	nop			@ (mov r8, r8)
10003070:	200011b0 	.word	0x200011b0

10003074 <_malloc_r>:
10003074:	b5f0      	push	{r4, r5, r6, r7, lr}
10003076:	464e      	mov	r6, r9
10003078:	4645      	mov	r5, r8
1000307a:	46de      	mov	lr, fp
1000307c:	4657      	mov	r7, sl
1000307e:	b5e0      	push	{r5, r6, r7, lr}
10003080:	000d      	movs	r5, r1
10003082:	350b      	adds	r5, #11
10003084:	0006      	movs	r6, r0
10003086:	b085      	sub	sp, #20
10003088:	2d16      	cmp	r5, #22
1000308a:	d827      	bhi.n	100030dc <_malloc_r+0x68>
1000308c:	2910      	cmp	r1, #16
1000308e:	d900      	bls.n	10003092 <_malloc_r+0x1e>
10003090:	e0d0      	b.n	10003234 <_malloc_r+0x1c0>
10003092:	f000 fac1 	bl	10003618 <__malloc_lock>
10003096:	2510      	movs	r5, #16
10003098:	2318      	movs	r3, #24
1000309a:	2102      	movs	r1, #2
1000309c:	4fbf      	ldr	r7, [pc, #764]	@ (1000339c <_malloc_r+0x328>)
1000309e:	18fb      	adds	r3, r7, r3
100030a0:	001a      	movs	r2, r3
100030a2:	685c      	ldr	r4, [r3, #4]
100030a4:	3a08      	subs	r2, #8
100030a6:	4294      	cmp	r4, r2
100030a8:	d100      	bne.n	100030ac <_malloc_r+0x38>
100030aa:	e136      	b.n	1000331a <_malloc_r+0x2a6>
100030ac:	2203      	movs	r2, #3
100030ae:	6863      	ldr	r3, [r4, #4]
100030b0:	4393      	bics	r3, r2
100030b2:	68e2      	ldr	r2, [r4, #12]
100030b4:	68a1      	ldr	r1, [r4, #8]
100030b6:	60ca      	str	r2, [r1, #12]
100030b8:	6091      	str	r1, [r2, #8]
100030ba:	2101      	movs	r1, #1
100030bc:	18e3      	adds	r3, r4, r3
100030be:	685a      	ldr	r2, [r3, #4]
100030c0:	0030      	movs	r0, r6
100030c2:	430a      	orrs	r2, r1
100030c4:	605a      	str	r2, [r3, #4]
100030c6:	f000 faaf 	bl	10003628 <__malloc_unlock>
100030ca:	0020      	movs	r0, r4
100030cc:	3008      	adds	r0, #8
100030ce:	b005      	add	sp, #20
100030d0:	bcf0      	pop	{r4, r5, r6, r7}
100030d2:	46bb      	mov	fp, r7
100030d4:	46b2      	mov	sl, r6
100030d6:	46a9      	mov	r9, r5
100030d8:	46a0      	mov	r8, r4
100030da:	bdf0      	pop	{r4, r5, r6, r7, pc}
100030dc:	2307      	movs	r3, #7
100030de:	439d      	bics	r5, r3
100030e0:	d500      	bpl.n	100030e4 <_malloc_r+0x70>
100030e2:	e0a7      	b.n	10003234 <_malloc_r+0x1c0>
100030e4:	42a9      	cmp	r1, r5
100030e6:	d900      	bls.n	100030ea <_malloc_r+0x76>
100030e8:	e0a4      	b.n	10003234 <_malloc_r+0x1c0>
100030ea:	f000 fa95 	bl	10003618 <__malloc_lock>
100030ee:	23fc      	movs	r3, #252	@ 0xfc
100030f0:	005b      	lsls	r3, r3, #1
100030f2:	429d      	cmp	r5, r3
100030f4:	d200      	bcs.n	100030f8 <_malloc_r+0x84>
100030f6:	e18a      	b.n	1000340e <_malloc_r+0x39a>
100030f8:	0a69      	lsrs	r1, r5, #9
100030fa:	d100      	bne.n	100030fe <_malloc_r+0x8a>
100030fc:	e09e      	b.n	1000323c <_malloc_r+0x1c8>
100030fe:	2904      	cmp	r1, #4
10003100:	d900      	bls.n	10003104 <_malloc_r+0x90>
10003102:	e13f      	b.n	10003384 <_malloc_r+0x310>
10003104:	2338      	movs	r3, #56	@ 0x38
10003106:	4698      	mov	r8, r3
10003108:	09a9      	lsrs	r1, r5, #6
1000310a:	4488      	add	r8, r1
1000310c:	3139      	adds	r1, #57	@ 0x39
1000310e:	00c8      	lsls	r0, r1, #3
10003110:	4fa2      	ldr	r7, [pc, #648]	@ (1000339c <_malloc_r+0x328>)
10003112:	1838      	adds	r0, r7, r0
10003114:	6844      	ldr	r4, [r0, #4]
10003116:	3808      	subs	r0, #8
10003118:	42a0      	cmp	r0, r4
1000311a:	d00e      	beq.n	1000313a <_malloc_r+0xc6>
1000311c:	2303      	movs	r3, #3
1000311e:	469c      	mov	ip, r3
10003120:	e004      	b.n	1000312c <_malloc_r+0xb8>
10003122:	2a00      	cmp	r2, #0
10003124:	dac5      	bge.n	100030b2 <_malloc_r+0x3e>
10003126:	68e4      	ldr	r4, [r4, #12]
10003128:	42a0      	cmp	r0, r4
1000312a:	d006      	beq.n	1000313a <_malloc_r+0xc6>
1000312c:	4662      	mov	r2, ip
1000312e:	6863      	ldr	r3, [r4, #4]
10003130:	4393      	bics	r3, r2
10003132:	1b5a      	subs	r2, r3, r5
10003134:	2a0f      	cmp	r2, #15
10003136:	ddf4      	ble.n	10003122 <_malloc_r+0xae>
10003138:	4641      	mov	r1, r8
1000313a:	003a      	movs	r2, r7
1000313c:	693c      	ldr	r4, [r7, #16]
1000313e:	3208      	adds	r2, #8
10003140:	4294      	cmp	r4, r2
10003142:	d100      	bne.n	10003146 <_malloc_r+0xd2>
10003144:	e0d8      	b.n	100032f8 <_malloc_r+0x284>
10003146:	2003      	movs	r0, #3
10003148:	6863      	ldr	r3, [r4, #4]
1000314a:	4383      	bics	r3, r0
1000314c:	1b58      	subs	r0, r3, r5
1000314e:	280f      	cmp	r0, #15
10003150:	dd00      	ble.n	10003154 <_malloc_r+0xe0>
10003152:	e160      	b.n	10003416 <_malloc_r+0x3a2>
10003154:	613a      	str	r2, [r7, #16]
10003156:	617a      	str	r2, [r7, #20]
10003158:	2800      	cmp	r0, #0
1000315a:	daae      	bge.n	100030ba <_malloc_r+0x46>
1000315c:	687a      	ldr	r2, [r7, #4]
1000315e:	4690      	mov	r8, r2
10003160:	2280      	movs	r2, #128	@ 0x80
10003162:	0092      	lsls	r2, r2, #2
10003164:	4293      	cmp	r3, r2
10003166:	d300      	bcc.n	1000316a <_malloc_r+0xf6>
10003168:	e0dd      	b.n	10003326 <_malloc_r+0x2b2>
1000316a:	08da      	lsrs	r2, r3, #3
1000316c:	0958      	lsrs	r0, r3, #5
1000316e:	2301      	movs	r3, #1
10003170:	4083      	lsls	r3, r0
10003172:	4640      	mov	r0, r8
10003174:	4318      	orrs	r0, r3
10003176:	4680      	mov	r8, r0
10003178:	00d3      	lsls	r3, r2, #3
1000317a:	19db      	adds	r3, r3, r7
1000317c:	689a      	ldr	r2, [r3, #8]
1000317e:	6078      	str	r0, [r7, #4]
10003180:	60e3      	str	r3, [r4, #12]
10003182:	60a2      	str	r2, [r4, #8]
10003184:	609c      	str	r4, [r3, #8]
10003186:	60d4      	str	r4, [r2, #12]
10003188:	2001      	movs	r0, #1
1000318a:	108b      	asrs	r3, r1, #2
1000318c:	4098      	lsls	r0, r3
1000318e:	4540      	cmp	r0, r8
10003190:	d85c      	bhi.n	1000324c <_malloc_r+0x1d8>
10003192:	4643      	mov	r3, r8
10003194:	4203      	tst	r3, r0
10003196:	d10a      	bne.n	100031ae <_malloc_r+0x13a>
10003198:	2303      	movs	r3, #3
1000319a:	4399      	bics	r1, r3
1000319c:	4643      	mov	r3, r8
1000319e:	0040      	lsls	r0, r0, #1
100031a0:	3104      	adds	r1, #4
100031a2:	4203      	tst	r3, r0
100031a4:	d103      	bne.n	100031ae <_malloc_r+0x13a>
100031a6:	0040      	lsls	r0, r0, #1
100031a8:	3104      	adds	r1, #4
100031aa:	4203      	tst	r3, r0
100031ac:	d0fb      	beq.n	100031a6 <_malloc_r+0x132>
100031ae:	2303      	movs	r3, #3
100031b0:	46b3      	mov	fp, r6
100031b2:	469c      	mov	ip, r3
100031b4:	000e      	movs	r6, r1
100031b6:	46b8      	mov	r8, r7
100031b8:	9001      	str	r0, [sp, #4]
100031ba:	00f0      	lsls	r0, r6, #3
100031bc:	4440      	add	r0, r8
100031be:	0001      	movs	r1, r0
100031c0:	46b2      	mov	sl, r6
100031c2:	68cb      	ldr	r3, [r1, #12]
100031c4:	e00b      	b.n	100031de <_malloc_r+0x16a>
100031c6:	4664      	mov	r4, ip
100031c8:	685a      	ldr	r2, [r3, #4]
100031ca:	001f      	movs	r7, r3
100031cc:	43a2      	bics	r2, r4
100031ce:	68db      	ldr	r3, [r3, #12]
100031d0:	1b54      	subs	r4, r2, r5
100031d2:	2c0f      	cmp	r4, #15
100031d4:	dd00      	ble.n	100031d8 <_malloc_r+0x164>
100031d6:	e0ed      	b.n	100033b4 <_malloc_r+0x340>
100031d8:	2c00      	cmp	r4, #0
100031da:	db00      	blt.n	100031de <_malloc_r+0x16a>
100031dc:	e107      	b.n	100033ee <_malloc_r+0x37a>
100031de:	4299      	cmp	r1, r3
100031e0:	d1f1      	bne.n	100031c6 <_malloc_r+0x152>
100031e2:	2301      	movs	r3, #1
100031e4:	4699      	mov	r9, r3
100031e6:	44ca      	add	sl, r9
100031e8:	4653      	mov	r3, sl
100031ea:	3108      	adds	r1, #8
100031ec:	079b      	lsls	r3, r3, #30
100031ee:	d1e8      	bne.n	100031c2 <_malloc_r+0x14e>
100031f0:	2203      	movs	r2, #3
100031f2:	e005      	b.n	10003200 <_malloc_r+0x18c>
100031f4:	6803      	ldr	r3, [r0, #0]
100031f6:	3808      	subs	r0, #8
100031f8:	3e01      	subs	r6, #1
100031fa:	4283      	cmp	r3, r0
100031fc:	d000      	beq.n	10003200 <_malloc_r+0x18c>
100031fe:	e204      	b.n	1000360a <_malloc_r+0x596>
10003200:	4232      	tst	r2, r6
10003202:	d1f7      	bne.n	100031f4 <_malloc_r+0x180>
10003204:	4643      	mov	r3, r8
10003206:	9a01      	ldr	r2, [sp, #4]
10003208:	685b      	ldr	r3, [r3, #4]
1000320a:	4393      	bics	r3, r2
1000320c:	4642      	mov	r2, r8
1000320e:	6053      	str	r3, [r2, #4]
10003210:	9a01      	ldr	r2, [sp, #4]
10003212:	0052      	lsls	r2, r2, #1
10003214:	9201      	str	r2, [sp, #4]
10003216:	429a      	cmp	r2, r3
10003218:	d816      	bhi.n	10003248 <_malloc_r+0x1d4>
1000321a:	2a00      	cmp	r2, #0
1000321c:	d106      	bne.n	1000322c <_malloc_r+0x1b8>
1000321e:	e013      	b.n	10003248 <_malloc_r+0x1d4>
10003220:	2204      	movs	r2, #4
10003222:	4691      	mov	r9, r2
10003224:	9a01      	ldr	r2, [sp, #4]
10003226:	44ca      	add	sl, r9
10003228:	0052      	lsls	r2, r2, #1
1000322a:	9201      	str	r2, [sp, #4]
1000322c:	4213      	tst	r3, r2
1000322e:	d0f7      	beq.n	10003220 <_malloc_r+0x1ac>
10003230:	4656      	mov	r6, sl
10003232:	e7c2      	b.n	100031ba <_malloc_r+0x146>
10003234:	230c      	movs	r3, #12
10003236:	2000      	movs	r0, #0
10003238:	6033      	str	r3, [r6, #0]
1000323a:	e748      	b.n	100030ce <_malloc_r+0x5a>
1000323c:	2080      	movs	r0, #128	@ 0x80
1000323e:	233f      	movs	r3, #63	@ 0x3f
10003240:	2140      	movs	r1, #64	@ 0x40
10003242:	4698      	mov	r8, r3
10003244:	0080      	lsls	r0, r0, #2
10003246:	e763      	b.n	10003110 <_malloc_r+0x9c>
10003248:	465e      	mov	r6, fp
1000324a:	4647      	mov	r7, r8
1000324c:	2203      	movs	r2, #3
1000324e:	68bc      	ldr	r4, [r7, #8]
10003250:	6863      	ldr	r3, [r4, #4]
10003252:	4393      	bics	r3, r2
10003254:	4699      	mov	r9, r3
10003256:	42ab      	cmp	r3, r5
10003258:	d302      	bcc.n	10003260 <_malloc_r+0x1ec>
1000325a:	1b5b      	subs	r3, r3, r5
1000325c:	2b0f      	cmp	r3, #15
1000325e:	dc4e      	bgt.n	100032fe <_malloc_r+0x28a>
10003260:	0023      	movs	r3, r4
10003262:	444b      	add	r3, r9
10003264:	9302      	str	r3, [sp, #8]
10003266:	4b4e      	ldr	r3, [pc, #312]	@ (100033a0 <_malloc_r+0x32c>)
10003268:	2008      	movs	r0, #8
1000326a:	681b      	ldr	r3, [r3, #0]
1000326c:	3310      	adds	r3, #16
1000326e:	195b      	adds	r3, r3, r5
10003270:	9301      	str	r3, [sp, #4]
10003272:	f000 fa11 	bl	10003698 <sysconf>
10003276:	494b      	ldr	r1, [pc, #300]	@ (100033a4 <_malloc_r+0x330>)
10003278:	9003      	str	r0, [sp, #12]
1000327a:	680b      	ldr	r3, [r1, #0]
1000327c:	468b      	mov	fp, r1
1000327e:	3301      	adds	r3, #1
10003280:	d006      	beq.n	10003290 <_malloc_r+0x21c>
10003282:	4684      	mov	ip, r0
10003284:	9b01      	ldr	r3, [sp, #4]
10003286:	4242      	negs	r2, r0
10003288:	3b01      	subs	r3, #1
1000328a:	4463      	add	r3, ip
1000328c:	4013      	ands	r3, r2
1000328e:	9301      	str	r3, [sp, #4]
10003290:	0030      	movs	r0, r6
10003292:	9901      	ldr	r1, [sp, #4]
10003294:	f000 f9d0 	bl	10003638 <_sbrk_r>
10003298:	0003      	movs	r3, r0
1000329a:	4680      	mov	r8, r0
1000329c:	3301      	adds	r3, #1
1000329e:	d100      	bne.n	100032a2 <_malloc_r+0x22e>
100032a0:	e0d7      	b.n	10003452 <_malloc_r+0x3de>
100032a2:	9b02      	ldr	r3, [sp, #8]
100032a4:	4283      	cmp	r3, r0
100032a6:	d900      	bls.n	100032aa <_malloc_r+0x236>
100032a8:	e0d1      	b.n	1000344e <_malloc_r+0x3da>
100032aa:	9a01      	ldr	r2, [sp, #4]
100032ac:	4b3e      	ldr	r3, [pc, #248]	@ (100033a8 <_malloc_r+0x334>)
100032ae:	4694      	mov	ip, r2
100032b0:	6819      	ldr	r1, [r3, #0]
100032b2:	469a      	mov	sl, r3
100032b4:	4461      	add	r1, ip
100032b6:	9a03      	ldr	r2, [sp, #12]
100032b8:	6019      	str	r1, [r3, #0]
100032ba:	9b02      	ldr	r3, [sp, #8]
100032bc:	0008      	movs	r0, r1
100032be:	3a01      	subs	r2, #1
100032c0:	4543      	cmp	r3, r8
100032c2:	d000      	beq.n	100032c6 <_malloc_r+0x252>
100032c4:	e0e4      	b.n	10003490 <_malloc_r+0x41c>
100032c6:	4643      	mov	r3, r8
100032c8:	4213      	tst	r3, r2
100032ca:	d000      	beq.n	100032ce <_malloc_r+0x25a>
100032cc:	e0e0      	b.n	10003490 <_malloc_r+0x41c>
100032ce:	68bb      	ldr	r3, [r7, #8]
100032d0:	4698      	mov	r8, r3
100032d2:	4663      	mov	r3, ip
100032d4:	444b      	add	r3, r9
100032d6:	001a      	movs	r2, r3
100032d8:	2301      	movs	r3, #1
100032da:	431a      	orrs	r2, r3
100032dc:	4643      	mov	r3, r8
100032de:	605a      	str	r2, [r3, #4]
100032e0:	4b32      	ldr	r3, [pc, #200]	@ (100033ac <_malloc_r+0x338>)
100032e2:	6818      	ldr	r0, [r3, #0]
100032e4:	4288      	cmp	r0, r1
100032e6:	d200      	bcs.n	100032ea <_malloc_r+0x276>
100032e8:	6019      	str	r1, [r3, #0]
100032ea:	4b31      	ldr	r3, [pc, #196]	@ (100033b0 <_malloc_r+0x33c>)
100032ec:	6818      	ldr	r0, [r3, #0]
100032ee:	4288      	cmp	r0, r1
100032f0:	d200      	bcs.n	100032f4 <_malloc_r+0x280>
100032f2:	6019      	str	r1, [r3, #0]
100032f4:	4644      	mov	r4, r8
100032f6:	e0ae      	b.n	10003456 <_malloc_r+0x3e2>
100032f8:	687b      	ldr	r3, [r7, #4]
100032fa:	4698      	mov	r8, r3
100032fc:	e744      	b.n	10003188 <_malloc_r+0x114>
100032fe:	2201      	movs	r2, #1
10003300:	0029      	movs	r1, r5
10003302:	4313      	orrs	r3, r2
10003304:	4311      	orrs	r1, r2
10003306:	1965      	adds	r5, r4, r5
10003308:	6061      	str	r1, [r4, #4]
1000330a:	0030      	movs	r0, r6
1000330c:	60bd      	str	r5, [r7, #8]
1000330e:	606b      	str	r3, [r5, #4]
10003310:	f000 f98a 	bl	10003628 <__malloc_unlock>
10003314:	0020      	movs	r0, r4
10003316:	3008      	adds	r0, #8
10003318:	e6d9      	b.n	100030ce <_malloc_r+0x5a>
1000331a:	68dc      	ldr	r4, [r3, #12]
1000331c:	3102      	adds	r1, #2
1000331e:	42a3      	cmp	r3, r4
10003320:	d100      	bne.n	10003324 <_malloc_r+0x2b0>
10003322:	e70a      	b.n	1000313a <_malloc_r+0xc6>
10003324:	e6c2      	b.n	100030ac <_malloc_r+0x38>
10003326:	0a5a      	lsrs	r2, r3, #9
10003328:	2a04      	cmp	r2, #4
1000332a:	d800      	bhi.n	1000332e <_malloc_r+0x2ba>
1000332c:	e088      	b.n	10003440 <_malloc_r+0x3cc>
1000332e:	2a14      	cmp	r2, #20
10003330:	d900      	bls.n	10003334 <_malloc_r+0x2c0>
10003332:	e10f      	b.n	10003554 <_malloc_r+0x4e0>
10003334:	0010      	movs	r0, r2
10003336:	305b      	adds	r0, #91	@ 0x5b
10003338:	4682      	mov	sl, r0
1000333a:	325c      	adds	r2, #92	@ 0x5c
1000333c:	00d2      	lsls	r2, r2, #3
1000333e:	2008      	movs	r0, #8
10003340:	4240      	negs	r0, r0
10003342:	4684      	mov	ip, r0
10003344:	18ba      	adds	r2, r7, r2
10003346:	4494      	add	ip, r2
10003348:	4662      	mov	r2, ip
1000334a:	6892      	ldr	r2, [r2, #8]
1000334c:	300b      	adds	r0, #11
1000334e:	4681      	mov	r9, r0
10003350:	4594      	cmp	ip, r2
10003352:	d100      	bne.n	10003356 <_malloc_r+0x2e2>
10003354:	e0e5      	b.n	10003522 <_malloc_r+0x4ae>
10003356:	0008      	movs	r0, r1
10003358:	46a2      	mov	sl, r4
1000335a:	4661      	mov	r1, ip
1000335c:	4684      	mov	ip, r0
1000335e:	e002      	b.n	10003366 <_malloc_r+0x2f2>
10003360:	6892      	ldr	r2, [r2, #8]
10003362:	4291      	cmp	r1, r2
10003364:	d004      	beq.n	10003370 <_malloc_r+0x2fc>
10003366:	464c      	mov	r4, r9
10003368:	6850      	ldr	r0, [r2, #4]
1000336a:	43a0      	bics	r0, r4
1000336c:	4298      	cmp	r0, r3
1000336e:	d8f7      	bhi.n	10003360 <_malloc_r+0x2ec>
10003370:	68d3      	ldr	r3, [r2, #12]
10003372:	4661      	mov	r1, ip
10003374:	4654      	mov	r4, sl
10003376:	469c      	mov	ip, r3
10003378:	4663      	mov	r3, ip
1000337a:	60a2      	str	r2, [r4, #8]
1000337c:	60e3      	str	r3, [r4, #12]
1000337e:	609c      	str	r4, [r3, #8]
10003380:	60d4      	str	r4, [r2, #12]
10003382:	e701      	b.n	10003188 <_malloc_r+0x114>
10003384:	2914      	cmp	r1, #20
10003386:	d973      	bls.n	10003470 <_malloc_r+0x3fc>
10003388:	2954      	cmp	r1, #84	@ 0x54
1000338a:	d900      	bls.n	1000338e <_malloc_r+0x31a>
1000338c:	e0eb      	b.n	10003566 <_malloc_r+0x4f2>
1000338e:	236e      	movs	r3, #110	@ 0x6e
10003390:	4698      	mov	r8, r3
10003392:	0b29      	lsrs	r1, r5, #12
10003394:	4488      	add	r8, r1
10003396:	316f      	adds	r1, #111	@ 0x6f
10003398:	00c8      	lsls	r0, r1, #3
1000339a:	e6b9      	b.n	10003110 <_malloc_r+0x9c>
1000339c:	20000da8 	.word	0x20000da8
100033a0:	200015d4 	.word	0x200015d4
100033a4:	20000da0 	.word	0x20000da0
100033a8:	200015a4 	.word	0x200015a4
100033ac:	200015cc 	.word	0x200015cc
100033b0:	200015d0 	.word	0x200015d0
100033b4:	46ba      	mov	sl, r7
100033b6:	2001      	movs	r0, #1
100033b8:	4651      	mov	r1, sl
100033ba:	4684      	mov	ip, r0
100033bc:	1949      	adds	r1, r1, r5
100033be:	4305      	orrs	r5, r0
100033c0:	4650      	mov	r0, sl
100033c2:	6045      	str	r5, [r0, #4]
100033c4:	6885      	ldr	r5, [r0, #8]
100033c6:	4647      	mov	r7, r8
100033c8:	4660      	mov	r0, ip
100033ca:	60eb      	str	r3, [r5, #12]
100033cc:	465e      	mov	r6, fp
100033ce:	609d      	str	r5, [r3, #8]
100033d0:	4653      	mov	r3, sl
100033d2:	6139      	str	r1, [r7, #16]
100033d4:	6179      	str	r1, [r7, #20]
100033d6:	4320      	orrs	r0, r4
100033d8:	3708      	adds	r7, #8
100033da:	6048      	str	r0, [r1, #4]
100033dc:	60cf      	str	r7, [r1, #12]
100033de:	0030      	movs	r0, r6
100033e0:	608f      	str	r7, [r1, #8]
100033e2:	509c      	str	r4, [r3, r2]
100033e4:	f000 f920 	bl	10003628 <__malloc_unlock>
100033e8:	4650      	mov	r0, sl
100033ea:	3008      	adds	r0, #8
100033ec:	e66f      	b.n	100030ce <_malloc_r+0x5a>
100033ee:	46ba      	mov	sl, r7
100033f0:	2001      	movs	r0, #1
100033f2:	465e      	mov	r6, fp
100033f4:	4452      	add	r2, sl
100033f6:	6851      	ldr	r1, [r2, #4]
100033f8:	4301      	orrs	r1, r0
100033fa:	6051      	str	r1, [r2, #4]
100033fc:	68ba      	ldr	r2, [r7, #8]
100033fe:	0030      	movs	r0, r6
10003400:	60d3      	str	r3, [r2, #12]
10003402:	609a      	str	r2, [r3, #8]
10003404:	f000 f910 	bl	10003628 <__malloc_unlock>
10003408:	0038      	movs	r0, r7
1000340a:	3008      	adds	r0, #8
1000340c:	e65f      	b.n	100030ce <_malloc_r+0x5a>
1000340e:	002b      	movs	r3, r5
10003410:	08e9      	lsrs	r1, r5, #3
10003412:	3308      	adds	r3, #8
10003414:	e642      	b.n	1000309c <_malloc_r+0x28>
10003416:	1961      	adds	r1, r4, r5
10003418:	4688      	mov	r8, r1
1000341a:	2101      	movs	r1, #1
1000341c:	468c      	mov	ip, r1
1000341e:	430d      	orrs	r5, r1
10003420:	4641      	mov	r1, r8
10003422:	6065      	str	r5, [r4, #4]
10003424:	6139      	str	r1, [r7, #16]
10003426:	6179      	str	r1, [r7, #20]
10003428:	60ca      	str	r2, [r1, #12]
1000342a:	608a      	str	r2, [r1, #8]
1000342c:	4662      	mov	r2, ip
1000342e:	4302      	orrs	r2, r0
10003430:	604a      	str	r2, [r1, #4]
10003432:	50e0      	str	r0, [r4, r3]
10003434:	0030      	movs	r0, r6
10003436:	f000 f8f7 	bl	10003628 <__malloc_unlock>
1000343a:	0020      	movs	r0, r4
1000343c:	3008      	adds	r0, #8
1000343e:	e646      	b.n	100030ce <_malloc_r+0x5a>
10003440:	099a      	lsrs	r2, r3, #6
10003442:	0010      	movs	r0, r2
10003444:	3239      	adds	r2, #57	@ 0x39
10003446:	3038      	adds	r0, #56	@ 0x38
10003448:	4682      	mov	sl, r0
1000344a:	00d2      	lsls	r2, r2, #3
1000344c:	e777      	b.n	1000333e <_malloc_r+0x2ca>
1000344e:	42bc      	cmp	r4, r7
10003450:	d014      	beq.n	1000347c <_malloc_r+0x408>
10003452:	68bc      	ldr	r4, [r7, #8]
10003454:	6862      	ldr	r2, [r4, #4]
10003456:	2303      	movs	r3, #3
10003458:	439a      	bics	r2, r3
1000345a:	1b53      	subs	r3, r2, r5
1000345c:	42aa      	cmp	r2, r5
1000345e:	d302      	bcc.n	10003466 <_malloc_r+0x3f2>
10003460:	2b0f      	cmp	r3, #15
10003462:	dd00      	ble.n	10003466 <_malloc_r+0x3f2>
10003464:	e74b      	b.n	100032fe <_malloc_r+0x28a>
10003466:	0030      	movs	r0, r6
10003468:	f000 f8de 	bl	10003628 <__malloc_unlock>
1000346c:	2000      	movs	r0, #0
1000346e:	e62e      	b.n	100030ce <_malloc_r+0x5a>
10003470:	235b      	movs	r3, #91	@ 0x5b
10003472:	4698      	mov	r8, r3
10003474:	4488      	add	r8, r1
10003476:	315c      	adds	r1, #92	@ 0x5c
10003478:	00c8      	lsls	r0, r1, #3
1000347a:	e649      	b.n	10003110 <_malloc_r+0x9c>
1000347c:	4b64      	ldr	r3, [pc, #400]	@ (10003610 <_malloc_r+0x59c>)
1000347e:	469a      	mov	sl, r3
10003480:	6818      	ldr	r0, [r3, #0]
10003482:	9b01      	ldr	r3, [sp, #4]
10003484:	469c      	mov	ip, r3
10003486:	4653      	mov	r3, sl
10003488:	4460      	add	r0, ip
1000348a:	6018      	str	r0, [r3, #0]
1000348c:	9b03      	ldr	r3, [sp, #12]
1000348e:	1e5a      	subs	r2, r3, #1
10003490:	465b      	mov	r3, fp
10003492:	681b      	ldr	r3, [r3, #0]
10003494:	3301      	adds	r3, #1
10003496:	d071      	beq.n	1000357c <_malloc_r+0x508>
10003498:	4643      	mov	r3, r8
1000349a:	9902      	ldr	r1, [sp, #8]
1000349c:	1a5b      	subs	r3, r3, r1
1000349e:	4651      	mov	r1, sl
100034a0:	181b      	adds	r3, r3, r0
100034a2:	600b      	str	r3, [r1, #0]
100034a4:	2307      	movs	r3, #7
100034a6:	4641      	mov	r1, r8
100034a8:	4640      	mov	r0, r8
100034aa:	4019      	ands	r1, r3
100034ac:	9102      	str	r1, [sp, #8]
100034ae:	4218      	tst	r0, r3
100034b0:	d040      	beq.n	10003534 <_malloc_r+0x4c0>
100034b2:	9803      	ldr	r0, [sp, #12]
100034b4:	3301      	adds	r3, #1
100034b6:	4684      	mov	ip, r0
100034b8:	1a5b      	subs	r3, r3, r1
100034ba:	9901      	ldr	r1, [sp, #4]
100034bc:	4498      	add	r8, r3
100034be:	4441      	add	r1, r8
100034c0:	9101      	str	r1, [sp, #4]
100034c2:	4463      	add	r3, ip
100034c4:	4011      	ands	r1, r2
100034c6:	1a5b      	subs	r3, r3, r1
100034c8:	401a      	ands	r2, r3
100034ca:	0011      	movs	r1, r2
100034cc:	0030      	movs	r0, r6
100034ce:	4693      	mov	fp, r2
100034d0:	f000 f8b2 	bl	10003638 <_sbrk_r>
100034d4:	1c43      	adds	r3, r0, #1
100034d6:	d078      	beq.n	100035ca <_malloc_r+0x556>
100034d8:	4643      	mov	r3, r8
100034da:	1ac0      	subs	r0, r0, r3
100034dc:	0003      	movs	r3, r0
100034de:	445b      	add	r3, fp
100034e0:	9301      	str	r3, [sp, #4]
100034e2:	4653      	mov	r3, sl
100034e4:	6819      	ldr	r1, [r3, #0]
100034e6:	2001      	movs	r0, #1
100034e8:	4459      	add	r1, fp
100034ea:	6019      	str	r1, [r3, #0]
100034ec:	4643      	mov	r3, r8
100034ee:	9a01      	ldr	r2, [sp, #4]
100034f0:	60bb      	str	r3, [r7, #8]
100034f2:	4302      	orrs	r2, r0
100034f4:	605a      	str	r2, [r3, #4]
100034f6:	42bc      	cmp	r4, r7
100034f8:	d100      	bne.n	100034fc <_malloc_r+0x488>
100034fa:	e6f1      	b.n	100032e0 <_malloc_r+0x26c>
100034fc:	464b      	mov	r3, r9
100034fe:	2b0f      	cmp	r3, #15
10003500:	d940      	bls.n	10003584 <_malloc_r+0x510>
10003502:	2207      	movs	r2, #7
10003504:	3b0c      	subs	r3, #12
10003506:	4393      	bics	r3, r2
10003508:	6862      	ldr	r2, [r4, #4]
1000350a:	4002      	ands	r2, r0
1000350c:	2005      	movs	r0, #5
1000350e:	431a      	orrs	r2, r3
10003510:	6062      	str	r2, [r4, #4]
10003512:	18e2      	adds	r2, r4, r3
10003514:	6050      	str	r0, [r2, #4]
10003516:	6090      	str	r0, [r2, #8]
10003518:	2b0f      	cmp	r3, #15
1000351a:	d84b      	bhi.n	100035b4 <_malloc_r+0x540>
1000351c:	4643      	mov	r3, r8
1000351e:	685a      	ldr	r2, [r3, #4]
10003520:	e6de      	b.n	100032e0 <_malloc_r+0x26c>
10003522:	4653      	mov	r3, sl
10003524:	1098      	asrs	r0, r3, #2
10003526:	2301      	movs	r3, #1
10003528:	4083      	lsls	r3, r0
1000352a:	4640      	mov	r0, r8
1000352c:	4318      	orrs	r0, r3
1000352e:	4680      	mov	r8, r0
10003530:	6078      	str	r0, [r7, #4]
10003532:	e721      	b.n	10003378 <_malloc_r+0x304>
10003534:	9b01      	ldr	r3, [sp, #4]
10003536:	9903      	ldr	r1, [sp, #12]
10003538:	4443      	add	r3, r8
1000353a:	4013      	ands	r3, r2
1000353c:	1acb      	subs	r3, r1, r3
1000353e:	401a      	ands	r2, r3
10003540:	0011      	movs	r1, r2
10003542:	0030      	movs	r0, r6
10003544:	4693      	mov	fp, r2
10003546:	f000 f877 	bl	10003638 <_sbrk_r>
1000354a:	1c43      	adds	r3, r0, #1
1000354c:	d1c4      	bne.n	100034d8 <_malloc_r+0x464>
1000354e:	2300      	movs	r3, #0
10003550:	469b      	mov	fp, r3
10003552:	e7c6      	b.n	100034e2 <_malloc_r+0x46e>
10003554:	2a54      	cmp	r2, #84	@ 0x54
10003556:	d818      	bhi.n	1000358a <_malloc_r+0x516>
10003558:	0b1a      	lsrs	r2, r3, #12
1000355a:	0010      	movs	r0, r2
1000355c:	326f      	adds	r2, #111	@ 0x6f
1000355e:	306e      	adds	r0, #110	@ 0x6e
10003560:	4682      	mov	sl, r0
10003562:	00d2      	lsls	r2, r2, #3
10003564:	e6eb      	b.n	1000333e <_malloc_r+0x2ca>
10003566:	23aa      	movs	r3, #170	@ 0xaa
10003568:	005b      	lsls	r3, r3, #1
1000356a:	4299      	cmp	r1, r3
1000356c:	d818      	bhi.n	100035a0 <_malloc_r+0x52c>
1000356e:	3bdd      	subs	r3, #221	@ 0xdd
10003570:	4698      	mov	r8, r3
10003572:	0be9      	lsrs	r1, r5, #15
10003574:	4488      	add	r8, r1
10003576:	3178      	adds	r1, #120	@ 0x78
10003578:	00c8      	lsls	r0, r1, #3
1000357a:	e5c9      	b.n	10003110 <_malloc_r+0x9c>
1000357c:	465b      	mov	r3, fp
1000357e:	4641      	mov	r1, r8
10003580:	6019      	str	r1, [r3, #0]
10003582:	e78f      	b.n	100034a4 <_malloc_r+0x430>
10003584:	4643      	mov	r3, r8
10003586:	6058      	str	r0, [r3, #4]
10003588:	e76d      	b.n	10003466 <_malloc_r+0x3f2>
1000358a:	20aa      	movs	r0, #170	@ 0xaa
1000358c:	0040      	lsls	r0, r0, #1
1000358e:	4282      	cmp	r2, r0
10003590:	d826      	bhi.n	100035e0 <_malloc_r+0x56c>
10003592:	0bda      	lsrs	r2, r3, #15
10003594:	0010      	movs	r0, r2
10003596:	3278      	adds	r2, #120	@ 0x78
10003598:	3077      	adds	r0, #119	@ 0x77
1000359a:	4682      	mov	sl, r0
1000359c:	00d2      	lsls	r2, r2, #3
1000359e:	e6ce      	b.n	1000333e <_malloc_r+0x2ca>
100035a0:	4b1c      	ldr	r3, [pc, #112]	@ (10003614 <_malloc_r+0x5a0>)
100035a2:	4299      	cmp	r1, r3
100035a4:	d826      	bhi.n	100035f4 <_malloc_r+0x580>
100035a6:	237c      	movs	r3, #124	@ 0x7c
100035a8:	4698      	mov	r8, r3
100035aa:	0ca9      	lsrs	r1, r5, #18
100035ac:	4488      	add	r8, r1
100035ae:	317d      	adds	r1, #125	@ 0x7d
100035b0:	00c8      	lsls	r0, r1, #3
100035b2:	e5ad      	b.n	10003110 <_malloc_r+0x9c>
100035b4:	0021      	movs	r1, r4
100035b6:	0030      	movs	r0, r6
100035b8:	3108      	adds	r1, #8
100035ba:	f000 f963 	bl	10003884 <_free_r>
100035be:	4653      	mov	r3, sl
100035c0:	6819      	ldr	r1, [r3, #0]
100035c2:	68bb      	ldr	r3, [r7, #8]
100035c4:	4698      	mov	r8, r3
100035c6:	685a      	ldr	r2, [r3, #4]
100035c8:	e68a      	b.n	100032e0 <_malloc_r+0x26c>
100035ca:	9a01      	ldr	r2, [sp, #4]
100035cc:	9b02      	ldr	r3, [sp, #8]
100035ce:	4694      	mov	ip, r2
100035d0:	4642      	mov	r2, r8
100035d2:	3b08      	subs	r3, #8
100035d4:	4463      	add	r3, ip
100035d6:	1a9b      	subs	r3, r3, r2
100035d8:	9301      	str	r3, [sp, #4]
100035da:	2300      	movs	r3, #0
100035dc:	469b      	mov	fp, r3
100035de:	e780      	b.n	100034e2 <_malloc_r+0x46e>
100035e0:	480c      	ldr	r0, [pc, #48]	@ (10003614 <_malloc_r+0x5a0>)
100035e2:	4282      	cmp	r2, r0
100035e4:	d80c      	bhi.n	10003600 <_malloc_r+0x58c>
100035e6:	0c9a      	lsrs	r2, r3, #18
100035e8:	0010      	movs	r0, r2
100035ea:	327d      	adds	r2, #125	@ 0x7d
100035ec:	307c      	adds	r0, #124	@ 0x7c
100035ee:	4682      	mov	sl, r0
100035f0:	00d2      	lsls	r2, r2, #3
100035f2:	e6a4      	b.n	1000333e <_malloc_r+0x2ca>
100035f4:	20fe      	movs	r0, #254	@ 0xfe
100035f6:	237e      	movs	r3, #126	@ 0x7e
100035f8:	217f      	movs	r1, #127	@ 0x7f
100035fa:	4698      	mov	r8, r3
100035fc:	0080      	lsls	r0, r0, #2
100035fe:	e587      	b.n	10003110 <_malloc_r+0x9c>
10003600:	22fe      	movs	r2, #254	@ 0xfe
10003602:	207e      	movs	r0, #126	@ 0x7e
10003604:	0092      	lsls	r2, r2, #2
10003606:	4682      	mov	sl, r0
10003608:	e699      	b.n	1000333e <_malloc_r+0x2ca>
1000360a:	4643      	mov	r3, r8
1000360c:	685b      	ldr	r3, [r3, #4]
1000360e:	e5ff      	b.n	10003210 <_malloc_r+0x19c>
10003610:	200015a4 	.word	0x200015a4
10003614:	00000554 	.word	0x00000554

10003618 <__malloc_lock>:
10003618:	b510      	push	{r4, lr}
1000361a:	4802      	ldr	r0, [pc, #8]	@ (10003624 <__malloc_lock+0xc>)
1000361c:	f000 f838 	bl	10003690 <__retarget_lock_acquire_recursive>
10003620:	bd10      	pop	{r4, pc}
10003622:	46c0      	nop			@ (mov r8, r8)
10003624:	200015a0 	.word	0x200015a0

10003628 <__malloc_unlock>:
10003628:	b510      	push	{r4, lr}
1000362a:	4802      	ldr	r0, [pc, #8]	@ (10003634 <__malloc_unlock+0xc>)
1000362c:	f000 f832 	bl	10003694 <__retarget_lock_release_recursive>
10003630:	bd10      	pop	{r4, pc}
10003632:	46c0      	nop			@ (mov r8, r8)
10003634:	200015a0 	.word	0x200015a0

10003638 <_sbrk_r>:
10003638:	2300      	movs	r3, #0
1000363a:	b570      	push	{r4, r5, r6, lr}
1000363c:	4c06      	ldr	r4, [pc, #24]	@ (10003658 <_sbrk_r+0x20>)
1000363e:	0005      	movs	r5, r0
10003640:	0008      	movs	r0, r1
10003642:	6023      	str	r3, [r4, #0]
10003644:	f7fe f9b8 	bl	100019b8 <_sbrk>
10003648:	1c43      	adds	r3, r0, #1
1000364a:	d000      	beq.n	1000364e <_sbrk_r+0x16>
1000364c:	bd70      	pop	{r4, r5, r6, pc}
1000364e:	6823      	ldr	r3, [r4, #0]
10003650:	2b00      	cmp	r3, #0
10003652:	d0fb      	beq.n	1000364c <_sbrk_r+0x14>
10003654:	602b      	str	r3, [r5, #0]
10003656:	e7f9      	b.n	1000364c <_sbrk_r+0x14>
10003658:	20002050 	.word	0x20002050

1000365c <__errno>:
1000365c:	4b01      	ldr	r3, [pc, #4]	@ (10003664 <__errno+0x8>)
1000365e:	6818      	ldr	r0, [r3, #0]
10003660:	4770      	bx	lr
10003662:	46c0      	nop			@ (mov r8, r8)
10003664:	200011b0 	.word	0x200011b0

10003668 <__libc_fini_array>:
10003668:	b570      	push	{r4, r5, r6, lr}
1000366a:	4c07      	ldr	r4, [pc, #28]	@ (10003688 <__libc_fini_array+0x20>)
1000366c:	4d07      	ldr	r5, [pc, #28]	@ (1000368c <__libc_fini_array+0x24>)
1000366e:	1b64      	subs	r4, r4, r5
10003670:	10a4      	asrs	r4, r4, #2
10003672:	d005      	beq.n	10003680 <__libc_fini_array+0x18>
10003674:	3c01      	subs	r4, #1
10003676:	00a3      	lsls	r3, r4, #2
10003678:	58eb      	ldr	r3, [r5, r3]
1000367a:	4798      	blx	r3
1000367c:	2c00      	cmp	r4, #0
1000367e:	d1f9      	bne.n	10003674 <__libc_fini_array+0xc>
10003680:	f000 f9ea 	bl	10003a58 <_fini>
10003684:	bd70      	pop	{r4, r5, r6, pc}
10003686:	46c0      	nop			@ (mov r8, r8)
10003688:	20001304 	.word	0x20001304
1000368c:	20001304 	.word	0x20001304

10003690 <__retarget_lock_acquire_recursive>:
10003690:	4770      	bx	lr
10003692:	46c0      	nop			@ (mov r8, r8)

10003694 <__retarget_lock_release_recursive>:
10003694:	4770      	bx	lr
10003696:	46c0      	nop			@ (mov r8, r8)

10003698 <sysconf>:
10003698:	2380      	movs	r3, #128	@ 0x80
1000369a:	b510      	push	{r4, lr}
1000369c:	015b      	lsls	r3, r3, #5
1000369e:	2808      	cmp	r0, #8
100036a0:	d101      	bne.n	100036a6 <sysconf+0xe>
100036a2:	0018      	movs	r0, r3
100036a4:	bd10      	pop	{r4, pc}
100036a6:	f7ff ffd9 	bl	1000365c <__errno>
100036aa:	2316      	movs	r3, #22
100036ac:	6003      	str	r3, [r0, #0]
100036ae:	3b17      	subs	r3, #23
100036b0:	e7f7      	b.n	100036a2 <sysconf+0xa>
100036b2:	46c0      	nop			@ (mov r8, r8)

100036b4 <strlen>:
100036b4:	b510      	push	{r4, lr}
100036b6:	0783      	lsls	r3, r0, #30
100036b8:	d00a      	beq.n	100036d0 <strlen+0x1c>
100036ba:	0003      	movs	r3, r0
100036bc:	2103      	movs	r1, #3
100036be:	e002      	b.n	100036c6 <strlen+0x12>
100036c0:	3301      	adds	r3, #1
100036c2:	420b      	tst	r3, r1
100036c4:	d005      	beq.n	100036d2 <strlen+0x1e>
100036c6:	781a      	ldrb	r2, [r3, #0]
100036c8:	2a00      	cmp	r2, #0
100036ca:	d1f9      	bne.n	100036c0 <strlen+0xc>
100036cc:	1a18      	subs	r0, r3, r0
100036ce:	bd10      	pop	{r4, pc}
100036d0:	0003      	movs	r3, r0
100036d2:	6819      	ldr	r1, [r3, #0]
100036d4:	4a0c      	ldr	r2, [pc, #48]	@ (10003708 <strlen+0x54>)
100036d6:	4c0d      	ldr	r4, [pc, #52]	@ (1000370c <strlen+0x58>)
100036d8:	188a      	adds	r2, r1, r2
100036da:	438a      	bics	r2, r1
100036dc:	4222      	tst	r2, r4
100036de:	d10f      	bne.n	10003700 <strlen+0x4c>
100036e0:	6859      	ldr	r1, [r3, #4]
100036e2:	4a09      	ldr	r2, [pc, #36]	@ (10003708 <strlen+0x54>)
100036e4:	3304      	adds	r3, #4
100036e6:	188a      	adds	r2, r1, r2
100036e8:	438a      	bics	r2, r1
100036ea:	4222      	tst	r2, r4
100036ec:	d108      	bne.n	10003700 <strlen+0x4c>
100036ee:	6859      	ldr	r1, [r3, #4]
100036f0:	4a05      	ldr	r2, [pc, #20]	@ (10003708 <strlen+0x54>)
100036f2:	3304      	adds	r3, #4
100036f4:	188a      	adds	r2, r1, r2
100036f6:	438a      	bics	r2, r1
100036f8:	4222      	tst	r2, r4
100036fa:	d0f1      	beq.n	100036e0 <strlen+0x2c>
100036fc:	e000      	b.n	10003700 <strlen+0x4c>
100036fe:	3301      	adds	r3, #1
10003700:	781a      	ldrb	r2, [r3, #0]
10003702:	2a00      	cmp	r2, #0
10003704:	d1fb      	bne.n	100036fe <strlen+0x4a>
10003706:	e7e1      	b.n	100036cc <strlen+0x18>
10003708:	fefefeff 	.word	0xfefefeff
1000370c:	80808080 	.word	0x80808080

10003710 <__register_exitproc>:
10003710:	b5f0      	push	{r4, r5, r6, r7, lr}
10003712:	46d6      	mov	lr, sl
10003714:	464f      	mov	r7, r9
10003716:	4646      	mov	r6, r8
10003718:	4698      	mov	r8, r3
1000371a:	4b24      	ldr	r3, [pc, #144]	@ (100037ac <__register_exitproc+0x9c>)
1000371c:	b5c0      	push	{r6, r7, lr}
1000371e:	0006      	movs	r6, r0
10003720:	6818      	ldr	r0, [r3, #0]
10003722:	469a      	mov	sl, r3
10003724:	000f      	movs	r7, r1
10003726:	4691      	mov	r9, r2
10003728:	f7ff ffb2 	bl	10003690 <__retarget_lock_acquire_recursive>
1000372c:	4b20      	ldr	r3, [pc, #128]	@ (100037b0 <__register_exitproc+0xa0>)
1000372e:	681d      	ldr	r5, [r3, #0]
10003730:	2d00      	cmp	r5, #0
10003732:	d032      	beq.n	1000379a <__register_exitproc+0x8a>
10003734:	4653      	mov	r3, sl
10003736:	686c      	ldr	r4, [r5, #4]
10003738:	6818      	ldr	r0, [r3, #0]
1000373a:	2c1f      	cmp	r4, #31
1000373c:	dc30      	bgt.n	100037a0 <__register_exitproc+0x90>
1000373e:	2e00      	cmp	r6, #0
10003740:	d10c      	bne.n	1000375c <__register_exitproc+0x4c>
10003742:	1c63      	adds	r3, r4, #1
10003744:	3402      	adds	r4, #2
10003746:	00a4      	lsls	r4, r4, #2
10003748:	606b      	str	r3, [r5, #4]
1000374a:	5167      	str	r7, [r4, r5]
1000374c:	f7ff ffa2 	bl	10003694 <__retarget_lock_release_recursive>
10003750:	2000      	movs	r0, #0
10003752:	bce0      	pop	{r5, r6, r7}
10003754:	46ba      	mov	sl, r7
10003756:	46b1      	mov	r9, r6
10003758:	46a8      	mov	r8, r5
1000375a:	bdf0      	pop	{r4, r5, r6, r7, pc}
1000375c:	4649      	mov	r1, r9
1000375e:	2288      	movs	r2, #136	@ 0x88
10003760:	00a3      	lsls	r3, r4, #2
10003762:	18eb      	adds	r3, r5, r3
10003764:	5099      	str	r1, [r3, r2]
10003766:	21c4      	movs	r1, #196	@ 0xc4
10003768:	0049      	lsls	r1, r1, #1
1000376a:	468c      	mov	ip, r1
1000376c:	44ac      	add	ip, r5
1000376e:	4661      	mov	r1, ip
10003770:	3a87      	subs	r2, #135	@ 0x87
10003772:	40a2      	lsls	r2, r4
10003774:	6809      	ldr	r1, [r1, #0]
10003776:	4691      	mov	r9, r2
10003778:	4311      	orrs	r1, r2
1000377a:	4662      	mov	r2, ip
1000377c:	6011      	str	r1, [r2, #0]
1000377e:	2184      	movs	r1, #132	@ 0x84
10003780:	4642      	mov	r2, r8
10003782:	0049      	lsls	r1, r1, #1
10003784:	505a      	str	r2, [r3, r1]
10003786:	2e02      	cmp	r6, #2
10003788:	d1db      	bne.n	10003742 <__register_exitproc+0x32>
1000378a:	0029      	movs	r1, r5
1000378c:	464a      	mov	r2, r9
1000378e:	318d      	adds	r1, #141	@ 0x8d
10003790:	31ff      	adds	r1, #255	@ 0xff
10003792:	680b      	ldr	r3, [r1, #0]
10003794:	4313      	orrs	r3, r2
10003796:	600b      	str	r3, [r1, #0]
10003798:	e7d3      	b.n	10003742 <__register_exitproc+0x32>
1000379a:	4d06      	ldr	r5, [pc, #24]	@ (100037b4 <__register_exitproc+0xa4>)
1000379c:	601d      	str	r5, [r3, #0]
1000379e:	e7c9      	b.n	10003734 <__register_exitproc+0x24>
100037a0:	f7ff ff78 	bl	10003694 <__retarget_lock_release_recursive>
100037a4:	2001      	movs	r0, #1
100037a6:	4240      	negs	r0, r0
100037a8:	e7d3      	b.n	10003752 <__register_exitproc+0x42>
100037aa:	46c0      	nop			@ (mov r8, r8)
100037ac:	200012d8 	.word	0x200012d8
100037b0:	20001408 	.word	0x20001408
100037b4:	2000140c 	.word	0x2000140c

100037b8 <register_fini>:
100037b8:	4b03      	ldr	r3, [pc, #12]	@ (100037c8 <register_fini+0x10>)
100037ba:	b510      	push	{r4, lr}
100037bc:	2b00      	cmp	r3, #0
100037be:	d002      	beq.n	100037c6 <register_fini+0xe>
100037c0:	4802      	ldr	r0, [pc, #8]	@ (100037cc <register_fini+0x14>)
100037c2:	f7ff fbe5 	bl	10002f90 <atexit>
100037c6:	bd10      	pop	{r4, pc}
100037c8:	00000000 	.word	0x00000000
100037cc:	10003669 	.word	0x10003669

100037d0 <_malloc_trim_r>:
100037d0:	b5f0      	push	{r4, r5, r6, r7, lr}
100037d2:	46c6      	mov	lr, r8
100037d4:	0006      	movs	r6, r0
100037d6:	b500      	push	{lr}
100037d8:	2008      	movs	r0, #8
100037da:	000d      	movs	r5, r1
100037dc:	f7ff ff5c 	bl	10003698 <sysconf>
100037e0:	0004      	movs	r4, r0
100037e2:	0030      	movs	r0, r6
100037e4:	f7ff ff18 	bl	10003618 <__malloc_lock>
100037e8:	4b23      	ldr	r3, [pc, #140]	@ (10003878 <_malloc_trim_r+0xa8>)
100037ea:	0021      	movs	r1, r4
100037ec:	4698      	mov	r8, r3
100037ee:	689b      	ldr	r3, [r3, #8]
100037f0:	685f      	ldr	r7, [r3, #4]
100037f2:	2303      	movs	r3, #3
100037f4:	439f      	bics	r7, r3
100037f6:	0038      	movs	r0, r7
100037f8:	3811      	subs	r0, #17
100037fa:	1b40      	subs	r0, r0, r5
100037fc:	1900      	adds	r0, r0, r4
100037fe:	f7fe f977 	bl	10001af0 <__wrap___aeabi_uidiv>
10003802:	1e45      	subs	r5, r0, #1
10003804:	4365      	muls	r5, r4
10003806:	42ac      	cmp	r4, r5
10003808:	dc08      	bgt.n	1000381c <_malloc_trim_r+0x4c>
1000380a:	2100      	movs	r1, #0
1000380c:	0030      	movs	r0, r6
1000380e:	f7ff ff13 	bl	10003638 <_sbrk_r>
10003812:	4643      	mov	r3, r8
10003814:	689b      	ldr	r3, [r3, #8]
10003816:	19db      	adds	r3, r3, r7
10003818:	4298      	cmp	r0, r3
1000381a:	d006      	beq.n	1000382a <_malloc_trim_r+0x5a>
1000381c:	0030      	movs	r0, r6
1000381e:	f7ff ff03 	bl	10003628 <__malloc_unlock>
10003822:	2000      	movs	r0, #0
10003824:	bc80      	pop	{r7}
10003826:	46b8      	mov	r8, r7
10003828:	bdf0      	pop	{r4, r5, r6, r7, pc}
1000382a:	0030      	movs	r0, r6
1000382c:	4269      	negs	r1, r5
1000382e:	f7ff ff03 	bl	10003638 <_sbrk_r>
10003832:	3001      	adds	r0, #1
10003834:	d00e      	beq.n	10003854 <_malloc_trim_r+0x84>
10003836:	2201      	movs	r2, #1
10003838:	4643      	mov	r3, r8
1000383a:	1b7f      	subs	r7, r7, r5
1000383c:	689b      	ldr	r3, [r3, #8]
1000383e:	4317      	orrs	r7, r2
10003840:	4a0e      	ldr	r2, [pc, #56]	@ (1000387c <_malloc_trim_r+0xac>)
10003842:	605f      	str	r7, [r3, #4]
10003844:	6813      	ldr	r3, [r2, #0]
10003846:	0030      	movs	r0, r6
10003848:	1b5b      	subs	r3, r3, r5
1000384a:	6013      	str	r3, [r2, #0]
1000384c:	f7ff feec 	bl	10003628 <__malloc_unlock>
10003850:	2001      	movs	r0, #1
10003852:	e7e7      	b.n	10003824 <_malloc_trim_r+0x54>
10003854:	2100      	movs	r1, #0
10003856:	0030      	movs	r0, r6
10003858:	f7ff feee 	bl	10003638 <_sbrk_r>
1000385c:	4643      	mov	r3, r8
1000385e:	689a      	ldr	r2, [r3, #8]
10003860:	1a83      	subs	r3, r0, r2
10003862:	2b0f      	cmp	r3, #15
10003864:	ddda      	ble.n	1000381c <_malloc_trim_r+0x4c>
10003866:	4c06      	ldr	r4, [pc, #24]	@ (10003880 <_malloc_trim_r+0xb0>)
10003868:	4904      	ldr	r1, [pc, #16]	@ (1000387c <_malloc_trim_r+0xac>)
1000386a:	6824      	ldr	r4, [r4, #0]
1000386c:	1b00      	subs	r0, r0, r4
1000386e:	6008      	str	r0, [r1, #0]
10003870:	2101      	movs	r1, #1
10003872:	430b      	orrs	r3, r1
10003874:	6053      	str	r3, [r2, #4]
10003876:	e7d1      	b.n	1000381c <_malloc_trim_r+0x4c>
10003878:	20000da8 	.word	0x20000da8
1000387c:	200015a4 	.word	0x200015a4
10003880:	20000da0 	.word	0x20000da0

10003884 <_free_r>:
10003884:	b5f8      	push	{r3, r4, r5, r6, r7, lr}
10003886:	46ce      	mov	lr, r9
10003888:	4647      	mov	r7, r8
1000388a:	0005      	movs	r5, r0
1000388c:	000c      	movs	r4, r1
1000388e:	b580      	push	{r7, lr}
10003890:	2900      	cmp	r1, #0
10003892:	d057      	beq.n	10003944 <_free_r+0xc0>
10003894:	f7ff fec0 	bl	10003618 <__malloc_lock>
10003898:	2301      	movs	r3, #1
1000389a:	0021      	movs	r1, r4
1000389c:	469c      	mov	ip, r3
1000389e:	3908      	subs	r1, #8
100038a0:	6848      	ldr	r0, [r1, #4]
100038a2:	4662      	mov	r2, ip
100038a4:	0003      	movs	r3, r0
100038a6:	2403      	movs	r4, #3
100038a8:	4393      	bics	r3, r2
100038aa:	18cf      	adds	r7, r1, r3
100038ac:	687a      	ldr	r2, [r7, #4]
100038ae:	4e65      	ldr	r6, [pc, #404]	@ (10003a44 <_free_r+0x1c0>)
100038b0:	43a2      	bics	r2, r4
100038b2:	68b4      	ldr	r4, [r6, #8]
100038b4:	42bc      	cmp	r4, r7
100038b6:	d100      	bne.n	100038ba <_free_r+0x36>
100038b8:	e070      	b.n	1000399c <_free_r+0x118>
100038ba:	18bc      	adds	r4, r7, r2
100038bc:	46a1      	mov	r9, r4
100038be:	4664      	mov	r4, ip
100038c0:	607a      	str	r2, [r7, #4]
100038c2:	4204      	tst	r4, r0
100038c4:	d121      	bne.n	1000390a <_free_r+0x86>
100038c6:	6808      	ldr	r0, [r1, #0]
100038c8:	1a09      	subs	r1, r1, r0
100038ca:	181b      	adds	r3, r3, r0
100038cc:	6888      	ldr	r0, [r1, #8]
100038ce:	4680      	mov	r8, r0
100038d0:	4648      	mov	r0, r9
100038d2:	6840      	ldr	r0, [r0, #4]
100038d4:	4020      	ands	r0, r4
100038d6:	0034      	movs	r4, r6
100038d8:	3408      	adds	r4, #8
100038da:	4681      	mov	r9, r0
100038dc:	45a0      	cmp	r8, r4
100038de:	d051      	beq.n	10003984 <_free_r+0x100>
100038e0:	4640      	mov	r0, r8
100038e2:	68cc      	ldr	r4, [r1, #12]
100038e4:	60c4      	str	r4, [r0, #12]
100038e6:	60a0      	str	r0, [r4, #8]
100038e8:	4648      	mov	r0, r9
100038ea:	2800      	cmp	r0, #0
100038ec:	d111      	bne.n	10003912 <_free_r+0x8e>
100038ee:	189b      	adds	r3, r3, r2
100038f0:	4855      	ldr	r0, [pc, #340]	@ (10003a48 <_free_r+0x1c4>)
100038f2:	68ba      	ldr	r2, [r7, #8]
100038f4:	4282      	cmp	r2, r0
100038f6:	d100      	bne.n	100038fa <_free_r+0x76>
100038f8:	e07f      	b.n	100039fa <_free_r+0x176>
100038fa:	68f8      	ldr	r0, [r7, #12]
100038fc:	60d0      	str	r0, [r2, #12]
100038fe:	6082      	str	r2, [r0, #8]
10003900:	2201      	movs	r2, #1
10003902:	431a      	orrs	r2, r3
10003904:	604a      	str	r2, [r1, #4]
10003906:	50cb      	str	r3, [r1, r3]
10003908:	e007      	b.n	1000391a <_free_r+0x96>
1000390a:	4648      	mov	r0, r9
1000390c:	6840      	ldr	r0, [r0, #4]
1000390e:	4220      	tst	r0, r4
10003910:	d0ed      	beq.n	100038ee <_free_r+0x6a>
10003912:	4662      	mov	r2, ip
10003914:	431a      	orrs	r2, r3
10003916:	604a      	str	r2, [r1, #4]
10003918:	603b      	str	r3, [r7, #0]
1000391a:	2280      	movs	r2, #128	@ 0x80
1000391c:	0092      	lsls	r2, r2, #2
1000391e:	4293      	cmp	r3, r2
10003920:	d214      	bcs.n	1000394c <_free_r+0xc8>
10003922:	08da      	lsrs	r2, r3, #3
10003924:	0958      	lsrs	r0, r3, #5
10003926:	2301      	movs	r3, #1
10003928:	4083      	lsls	r3, r0
1000392a:	6870      	ldr	r0, [r6, #4]
1000392c:	4303      	orrs	r3, r0
1000392e:	6073      	str	r3, [r6, #4]
10003930:	00d3      	lsls	r3, r2, #3
10003932:	199b      	adds	r3, r3, r6
10003934:	689a      	ldr	r2, [r3, #8]
10003936:	60cb      	str	r3, [r1, #12]
10003938:	608a      	str	r2, [r1, #8]
1000393a:	6099      	str	r1, [r3, #8]
1000393c:	60d1      	str	r1, [r2, #12]
1000393e:	0028      	movs	r0, r5
10003940:	f7ff fe72 	bl	10003628 <__malloc_unlock>
10003944:	bcc0      	pop	{r6, r7}
10003946:	46b9      	mov	r9, r7
10003948:	46b0      	mov	r8, r6
1000394a:	bdf8      	pop	{r3, r4, r5, r6, r7, pc}
1000394c:	0a5c      	lsrs	r4, r3, #9
1000394e:	2c04      	cmp	r4, #4
10003950:	d83d      	bhi.n	100039ce <_free_r+0x14a>
10003952:	099c      	lsrs	r4, r3, #6
10003954:	0020      	movs	r0, r4
10003956:	3439      	adds	r4, #57	@ 0x39
10003958:	3038      	adds	r0, #56	@ 0x38
1000395a:	00e4      	lsls	r4, r4, #3
1000395c:	1934      	adds	r4, r6, r4
1000395e:	6822      	ldr	r2, [r4, #0]
10003960:	3c08      	subs	r4, #8
10003962:	2703      	movs	r7, #3
10003964:	4294      	cmp	r4, r2
10003966:	d103      	bne.n	10003970 <_free_r+0xec>
10003968:	e040      	b.n	100039ec <_free_r+0x168>
1000396a:	6892      	ldr	r2, [r2, #8]
1000396c:	4294      	cmp	r4, r2
1000396e:	d003      	beq.n	10003978 <_free_r+0xf4>
10003970:	6850      	ldr	r0, [r2, #4]
10003972:	43b8      	bics	r0, r7
10003974:	4298      	cmp	r0, r3
10003976:	d8f8      	bhi.n	1000396a <_free_r+0xe6>
10003978:	68d4      	ldr	r4, [r2, #12]
1000397a:	60cc      	str	r4, [r1, #12]
1000397c:	608a      	str	r2, [r1, #8]
1000397e:	60a1      	str	r1, [r4, #8]
10003980:	60d1      	str	r1, [r2, #12]
10003982:	e7dc      	b.n	1000393e <_free_r+0xba>
10003984:	2800      	cmp	r0, #0
10003986:	d158      	bne.n	10003a3a <_free_r+0x1b6>
10003988:	68b8      	ldr	r0, [r7, #8]
1000398a:	18d2      	adds	r2, r2, r3
1000398c:	68fb      	ldr	r3, [r7, #12]
1000398e:	60c3      	str	r3, [r0, #12]
10003990:	6098      	str	r0, [r3, #8]
10003992:	4663      	mov	r3, ip
10003994:	4313      	orrs	r3, r2
10003996:	604b      	str	r3, [r1, #4]
10003998:	508a      	str	r2, [r1, r2]
1000399a:	e7d0      	b.n	1000393e <_free_r+0xba>
1000399c:	189a      	adds	r2, r3, r2
1000399e:	4663      	mov	r3, ip
100039a0:	4203      	tst	r3, r0
100039a2:	d106      	bne.n	100039b2 <_free_r+0x12e>
100039a4:	680b      	ldr	r3, [r1, #0]
100039a6:	1ac9      	subs	r1, r1, r3
100039a8:	6888      	ldr	r0, [r1, #8]
100039aa:	18d2      	adds	r2, r2, r3
100039ac:	68cb      	ldr	r3, [r1, #12]
100039ae:	60c3      	str	r3, [r0, #12]
100039b0:	6098      	str	r0, [r3, #8]
100039b2:	2301      	movs	r3, #1
100039b4:	4313      	orrs	r3, r2
100039b6:	604b      	str	r3, [r1, #4]
100039b8:	4b24      	ldr	r3, [pc, #144]	@ (10003a4c <_free_r+0x1c8>)
100039ba:	60b1      	str	r1, [r6, #8]
100039bc:	681b      	ldr	r3, [r3, #0]
100039be:	4293      	cmp	r3, r2
100039c0:	d8bd      	bhi.n	1000393e <_free_r+0xba>
100039c2:	4b23      	ldr	r3, [pc, #140]	@ (10003a50 <_free_r+0x1cc>)
100039c4:	0028      	movs	r0, r5
100039c6:	6819      	ldr	r1, [r3, #0]
100039c8:	f7ff ff02 	bl	100037d0 <_malloc_trim_r>
100039cc:	e7b7      	b.n	1000393e <_free_r+0xba>
100039ce:	2c14      	cmp	r4, #20
100039d0:	d907      	bls.n	100039e2 <_free_r+0x15e>
100039d2:	2c54      	cmp	r4, #84	@ 0x54
100039d4:	d81a      	bhi.n	10003a0c <_free_r+0x188>
100039d6:	0b1c      	lsrs	r4, r3, #12
100039d8:	0020      	movs	r0, r4
100039da:	346f      	adds	r4, #111	@ 0x6f
100039dc:	306e      	adds	r0, #110	@ 0x6e
100039de:	00e4      	lsls	r4, r4, #3
100039e0:	e7bc      	b.n	1000395c <_free_r+0xd8>
100039e2:	0020      	movs	r0, r4
100039e4:	345c      	adds	r4, #92	@ 0x5c
100039e6:	305b      	adds	r0, #91	@ 0x5b
100039e8:	00e4      	lsls	r4, r4, #3
100039ea:	e7b7      	b.n	1000395c <_free_r+0xd8>
100039ec:	2301      	movs	r3, #1
100039ee:	1080      	asrs	r0, r0, #2
100039f0:	4083      	lsls	r3, r0
100039f2:	6870      	ldr	r0, [r6, #4]
100039f4:	4303      	orrs	r3, r0
100039f6:	6073      	str	r3, [r6, #4]
100039f8:	e7bf      	b.n	1000397a <_free_r+0xf6>
100039fa:	60d1      	str	r1, [r2, #12]
100039fc:	6091      	str	r1, [r2, #8]
100039fe:	60ca      	str	r2, [r1, #12]
10003a00:	608a      	str	r2, [r1, #8]
10003a02:	2201      	movs	r2, #1
10003a04:	431a      	orrs	r2, r3
10003a06:	604a      	str	r2, [r1, #4]
10003a08:	50cb      	str	r3, [r1, r3]
10003a0a:	e798      	b.n	1000393e <_free_r+0xba>
10003a0c:	22aa      	movs	r2, #170	@ 0xaa
10003a0e:	0052      	lsls	r2, r2, #1
10003a10:	4294      	cmp	r4, r2
10003a12:	d805      	bhi.n	10003a20 <_free_r+0x19c>
10003a14:	0bdc      	lsrs	r4, r3, #15
10003a16:	0020      	movs	r0, r4
10003a18:	3478      	adds	r4, #120	@ 0x78
10003a1a:	3077      	adds	r0, #119	@ 0x77
10003a1c:	00e4      	lsls	r4, r4, #3
10003a1e:	e79d      	b.n	1000395c <_free_r+0xd8>
10003a20:	4a0c      	ldr	r2, [pc, #48]	@ (10003a54 <_free_r+0x1d0>)
10003a22:	4294      	cmp	r4, r2
10003a24:	d805      	bhi.n	10003a32 <_free_r+0x1ae>
10003a26:	0c9c      	lsrs	r4, r3, #18
10003a28:	0020      	movs	r0, r4
10003a2a:	347d      	adds	r4, #125	@ 0x7d
10003a2c:	307c      	adds	r0, #124	@ 0x7c
10003a2e:	00e4      	lsls	r4, r4, #3
10003a30:	e794      	b.n	1000395c <_free_r+0xd8>
10003a32:	24fe      	movs	r4, #254	@ 0xfe
10003a34:	207e      	movs	r0, #126	@ 0x7e
10003a36:	00a4      	lsls	r4, r4, #2
10003a38:	e790      	b.n	1000395c <_free_r+0xd8>
10003a3a:	4662      	mov	r2, ip
10003a3c:	431a      	orrs	r2, r3
10003a3e:	604a      	str	r2, [r1, #4]
10003a40:	603b      	str	r3, [r7, #0]
10003a42:	e77c      	b.n	1000393e <_free_r+0xba>
10003a44:	20000da8 	.word	0x20000da8
10003a48:	20000db0 	.word	0x20000db0
10003a4c:	20000da4 	.word	0x20000da4
10003a50:	200015d4 	.word	0x200015d4
10003a54:	00000554 	.word	0x00000554

10003a58 <_fini>:
10003a58:	b5f8      	push	{r3, r4, r5, r6, r7, lr}
10003a5a:	46c0      	nop			@ (mov r8, r8)
10003a5c:	0000      	movs	r0, r0
	...

10003a60 <__mutex_exit_veneer>:
10003a60:	b401      	push	{r0}
10003a62:	4802      	ldr	r0, [pc, #8]	@ (10003a6c <__mutex_exit_veneer+0xc>)
10003a64:	4684      	mov	ip, r0
10003a66:	bc01      	pop	{r0}
10003a68:	4760      	bx	ip
10003a6a:	bf00      	nop
10003a6c:	20000391 	.word	0x20000391

10003a70 <____aeabi_ldiv0_veneer>:
10003a70:	b401      	push	{r0}
10003a72:	4802      	ldr	r0, [pc, #8]	@ (10003a7c <____aeabi_ldiv0_veneer+0xc>)
10003a74:	4684      	mov	ip, r0
10003a76:	bc01      	pop	{r0}
10003a78:	4760      	bx	ip
10003a7a:	bf00      	nop
10003a7c:	20000c99 	.word	0x20000c99

10003a80 <___scanline_callback_veneer>:
10003a80:	b401      	push	{r0}
10003a82:	4802      	ldr	r0, [pc, #8]	@ (10003a8c <___scanline_callback_veneer+0xc>)
10003a84:	4684      	mov	ip, r0
10003a86:	bc01      	pop	{r0}
10003a88:	4760      	bx	ip
10003a8a:	bf00      	nop
10003a8c:	200000e1 	.word	0x200000e1

10003a90 <____aeabi_idiv0_veneer>:
10003a90:	b401      	push	{r0}
10003a92:	4802      	ldr	r0, [pc, #8]	@ (10003a9c <____aeabi_idiv0_veneer+0xc>)
10003a94:	4684      	mov	ip, r0
10003a96:	bc01      	pop	{r0}
10003a98:	4760      	bx	ip
10003a9a:	bf00      	nop
10003a9c:	20000c99 	.word	0x20000c99

10003aa0 <__mutex_try_enter_block_until_veneer>:
10003aa0:	b401      	push	{r0}
10003aa2:	4802      	ldr	r0, [pc, #8]	@ (10003aac <__mutex_try_enter_block_until_veneer+0xc>)
10003aa4:	4684      	mov	ip, r0
10003aa6:	bc01      	pop	{r0}
10003aa8:	4760      	bx	ip
10003aaa:	bf00      	nop
10003aac:	20000331 	.word	0x20000331

10003ab0 <__mutex_enter_blocking_veneer>:
10003ab0:	b401      	push	{r0}
10003ab2:	4802      	ldr	r0, [pc, #8]	@ (10003abc <__mutex_enter_blocking_veneer+0xc>)
10003ab4:	4684      	mov	ip, r0
10003ab6:	bc01      	pop	{r0}
10003ab8:	4760      	bx	ip
10003aba:	bf00      	nop
10003abc:	20000275 	.word	0x20000275

Disassembly of section .data:

200000c0 <core1_main>:
200000c0:	b510      	push	{r4, lr}
200000c2:	4c06      	ldr	r4, [pc, #24]	@ (200000dc <core1_main+0x1c>)
200000c4:	210b      	movs	r1, #11
200000c6:	0020      	movs	r0, r4
200000c8:	f000 fdfa 	bl	20000cc0 <__dvi_register_irqs_this_core_veneer>
200000cc:	0020      	movs	r0, r4
200000ce:	f000 fde7 	bl	20000ca0 <__dvi_start_veneer>
200000d2:	0020      	movs	r0, r4
200000d4:	f000 fc1a 	bl	2000090c <dvi_scanbuf_main_16bpp>
200000d8:	bd10      	pop	{r4, pc}
200000da:	46c0      	nop			@ (mov r8, r8)
200000dc:	20001d9c 	.word	0x20001d9c

200000e0 <_scanline_callback>:
200000e0:	22ab      	movs	r2, #171	@ 0xab
200000e2:	b5f0      	push	{r4, r5, r6, r7, lr}
200000e4:	4657      	mov	r7, sl
200000e6:	464e      	mov	r6, r9
200000e8:	4645      	mov	r5, r8
200000ea:	46de      	mov	lr, fp
200000ec:	0092      	lsls	r2, r2, #2
200000ee:	4692      	mov	sl, r2
200000f0:	4a55      	ldr	r2, [pc, #340]	@ (20000248 <_scanline_callback+0x168>)
200000f2:	b5e0      	push	{r5, r6, r7, lr}
200000f4:	26a9      	movs	r6, #169	@ 0xa9
200000f6:	4694      	mov	ip, r2
200000f8:	2400      	movs	r4, #0
200000fa:	4b54      	ldr	r3, [pc, #336]	@ (2000024c <_scanline_callback+0x16c>)
200000fc:	4d54      	ldr	r5, [pc, #336]	@ (20000250 <_scanline_callback+0x170>)
200000fe:	00b6      	lsls	r6, r6, #2
20000100:	5999      	ldr	r1, [r3, r6]
20000102:	f3ef 8010 	mrs	r0, PRIMASK
20000106:	b672      	cpsid	i
20000108:	680a      	ldr	r2, [r1, #0]
2000010a:	2a00      	cmp	r2, #0
2000010c:	d0fc      	beq.n	20000108 <_scanline_callback+0x28>
2000010e:	f3bf 8f5f 	dmb	sy
20000112:	4652      	mov	r2, sl
20000114:	5b59      	ldrh	r1, [r3, r5]
20000116:	5a9a      	ldrh	r2, [r3, r2]
20000118:	1a52      	subs	r2, r2, r1
2000011a:	d506      	bpl.n	2000012a <_scanline_callback+0x4a>
2000011c:	4667      	mov	r7, ip
2000011e:	5bdf      	ldrh	r7, [r3, r7]
20000120:	46b8      	mov	r8, r7
20000122:	2701      	movs	r7, #1
20000124:	46b9      	mov	r9, r7
20000126:	44c8      	add	r8, r9
20000128:	4442      	add	r2, r8
2000012a:	2a00      	cmp	r2, #0
2000012c:	d000      	beq.n	20000130 <_scanline_callback+0x50>
2000012e:	e078      	b.n	20000222 <_scanline_callback+0x142>
20000130:	21a9      	movs	r1, #169	@ 0xa9
20000132:	0089      	lsls	r1, r1, #2
20000134:	5859      	ldr	r1, [r3, r1]
20000136:	f3bf 8f5f 	dmb	sy
2000013a:	600a      	str	r2, [r1, #0]
2000013c:	f380 8810 	msr	PRIMASK, r0
20000140:	4e44      	ldr	r6, [pc, #272]	@ (20000254 <_scanline_callback+0x174>)
20000142:	4f45      	ldr	r7, [pc, #276]	@ (20000258 <_scanline_callback+0x178>)
20000144:	7832      	ldrb	r2, [r6, #0]
20000146:	25a5      	movs	r5, #165	@ 0xa5
20000148:	0092      	lsls	r2, r2, #2
2000014a:	58ba      	ldr	r2, [r7, r2]
2000014c:	00ad      	lsls	r5, r5, #2
2000014e:	4693      	mov	fp, r2
20000150:	22a7      	movs	r2, #167	@ 0xa7
20000152:	0092      	lsls	r2, r2, #2
20000154:	4691      	mov	r9, r2
20000156:	4a41      	ldr	r2, [pc, #260]	@ (2000025c <_scanline_callback+0x17c>)
20000158:	4690      	mov	r8, r2
2000015a:	2200      	movs	r2, #0
2000015c:	4692      	mov	sl, r2
2000015e:	5959      	ldr	r1, [r3, r5]
20000160:	f3ef 8c10 	mrs	ip, PRIMASK
20000164:	b672      	cpsid	i
20000166:	680a      	ldr	r2, [r1, #0]
20000168:	2a00      	cmp	r2, #0
2000016a:	d0fc      	beq.n	20000166 <_scanline_callback+0x86>
2000016c:	f3bf 8f5f 	dmb	sy
20000170:	464a      	mov	r2, r9
20000172:	4641      	mov	r1, r8
20000174:	5a9a      	ldrh	r2, [r3, r2]
20000176:	5a59      	ldrh	r1, [r3, r1]
20000178:	4839      	ldr	r0, [pc, #228]	@ (20000260 <_scanline_callback+0x180>)
2000017a:	1a51      	subs	r1, r2, r1
2000017c:	5a18      	ldrh	r0, [r3, r0]
2000017e:	2900      	cmp	r1, #0
20000180:	da01      	bge.n	20000186 <_scanline_callback+0xa6>
20000182:	1c44      	adds	r4, r0, #1
20000184:	1909      	adds	r1, r1, r4
20000186:	595c      	ldr	r4, [r3, r5]
20000188:	4288      	cmp	r0, r1
2000018a:	d042      	beq.n	20000212 <_scanline_callback+0x132>
2000018c:	21a6      	movs	r1, #166	@ 0xa6
2000018e:	4680      	mov	r8, r0
20000190:	4658      	mov	r0, fp
20000192:	0089      	lsls	r1, r1, #2
20000194:	5859      	ldr	r1, [r3, r1]
20000196:	0095      	lsls	r5, r2, #2
20000198:	5068      	str	r0, [r5, r1]
2000019a:	2100      	movs	r1, #0
2000019c:	4640      	mov	r0, r8
2000019e:	000d      	movs	r5, r1
200001a0:	3201      	adds	r2, #1
200001a2:	b292      	uxth	r2, r2
200001a4:	4290      	cmp	r0, r2
200001a6:	414d      	adcs	r5, r1
200001a8:	4268      	negs	r0, r5
200001aa:	4002      	ands	r2, r0
200001ac:	20a7      	movs	r0, #167	@ 0xa7
200001ae:	0080      	lsls	r0, r0, #2
200001b0:	521a      	strh	r2, [r3, r0]
200001b2:	f3bf 8f5f 	dmb	sy
200001b6:	6021      	str	r1, [r4, #0]
200001b8:	f38c 8810 	msr	PRIMASK, ip
200001bc:	bf40      	sev
200001be:	2301      	movs	r3, #1
200001c0:	7832      	ldrb	r2, [r6, #0]
200001c2:	4828      	ldr	r0, [pc, #160]	@ (20000264 <_scanline_callback+0x184>)
200001c4:	3201      	adds	r2, #1
200001c6:	4013      	ands	r3, r2
200001c8:	7033      	strb	r3, [r6, #0]
200001ca:	4e27      	ldr	r6, [pc, #156]	@ (20000268 <_scanline_callback+0x188>)
200001cc:	4a27      	ldr	r2, [pc, #156]	@ (2000026c <_scanline_callback+0x18c>)
200001ce:	6835      	ldr	r5, [r6, #0]
200001d0:	009b      	lsls	r3, r3, #2
200001d2:	00a9      	lsls	r1, r5, #2
200001d4:	1949      	adds	r1, r1, r5
200001d6:	0189      	lsls	r1, r1, #6
200001d8:	1889      	adds	r1, r1, r2
200001da:	22a0      	movs	r2, #160	@ 0xa0
200001dc:	58fb      	ldr	r3, [r7, r3]
200001de:	0092      	lsls	r2, r2, #2
200001e0:	189c      	adds	r4, r3, r2
200001e2:	780a      	ldrb	r2, [r1, #0]
200001e4:	3101      	adds	r1, #1
200001e6:	0052      	lsls	r2, r2, #1
200001e8:	5a82      	ldrh	r2, [r0, r2]
200001ea:	801a      	strh	r2, [r3, #0]
200001ec:	3302      	adds	r3, #2
200001ee:	42a3      	cmp	r3, r4
200001f0:	d1f7      	bne.n	200001e2 <_scanline_callback+0x102>
200001f2:	3501      	adds	r5, #1
200001f4:	6035      	str	r5, [r6, #0]
200001f6:	2df0      	cmp	r5, #240	@ 0xf0
200001f8:	d105      	bne.n	20000206 <_scanline_callback+0x126>
200001fa:	4a1d      	ldr	r2, [pc, #116]	@ (20000270 <_scanline_callback+0x190>)
200001fc:	6813      	ldr	r3, [r2, #0]
200001fe:	3301      	adds	r3, #1
20000200:	6013      	str	r3, [r2, #0]
20000202:	2300      	movs	r3, #0
20000204:	6033      	str	r3, [r6, #0]
20000206:	bcf0      	pop	{r4, r5, r6, r7}
20000208:	46bb      	mov	fp, r7
2000020a:	46b2      	mov	sl, r6
2000020c:	46a9      	mov	r9, r5
2000020e:	46a0      	mov	r8, r4
20000210:	bdf0      	pop	{r4, r5, r6, r7, pc}
20000212:	f3bf 8f5f 	dmb	sy
20000216:	4652      	mov	r2, sl
20000218:	6022      	str	r2, [r4, #0]
2000021a:	f38c 8810 	msr	PRIMASK, ip
2000021e:	bf20      	wfe
20000220:	e79d      	b.n	2000015e <_scanline_callback+0x7e>
20000222:	3101      	adds	r1, #1
20000224:	b28a      	uxth	r2, r1
20000226:	4661      	mov	r1, ip
20000228:	0027      	movs	r7, r4
2000022a:	5a59      	ldrh	r1, [r3, r1]
2000022c:	4291      	cmp	r1, r2
2000022e:	4167      	adcs	r7, r4
20000230:	4279      	negs	r1, r7
20000232:	400a      	ands	r2, r1
20000234:	535a      	strh	r2, [r3, r5]
20000236:	599a      	ldr	r2, [r3, r6]
20000238:	f3bf 8f5f 	dmb	sy
2000023c:	6014      	str	r4, [r2, #0]
2000023e:	f380 8810 	msr	PRIMASK, r0
20000242:	bf40      	sev
20000244:	e75c      	b.n	20000100 <_scanline_callback+0x20>
20000246:	46c0      	nop			@ (mov r8, r8)
20000248:	000002b2 	.word	0x000002b2
2000024c:	20001d9c 	.word	0x20001d9c
20000250:	000002ae 	.word	0x000002ae
20000254:	200150ac 	.word	0x200150ac
20000258:	20000d00 	.word	0x20000d00
2000025c:	0000029e 	.word	0x0000029e
20000260:	000002a2 	.word	0x000002a2
20000264:	20002080 	.word	0x20002080
20000268:	20002064 	.word	0x20002064
2000026c:	20002290 	.word	0x20002290
20000270:	20002058 	.word	0x20002058

20000274 <mutex_enter_blocking>:
20000274:	23d0      	movs	r3, #208	@ 0xd0
20000276:	b530      	push	{r4, r5, lr}
20000278:	2500      	movs	r5, #0
2000027a:	061b      	lsls	r3, r3, #24
2000027c:	2400      	movs	r4, #0
2000027e:	575d      	ldrsb	r5, [r3, r5]
20000280:	e006      	b.n	20000290 <mutex_enter_blocking+0x1c>
20000282:	6803      	ldr	r3, [r0, #0]
20000284:	f3bf 8f5f 	dmb	sy
20000288:	601c      	str	r4, [r3, #0]
2000028a:	f381 8810 	msr	PRIMASK, r1
2000028e:	bf20      	wfe
20000290:	6802      	ldr	r2, [r0, #0]
20000292:	f3ef 8110 	mrs	r1, PRIMASK
20000296:	b672      	cpsid	i
20000298:	6813      	ldr	r3, [r2, #0]
2000029a:	2b00      	cmp	r3, #0
2000029c:	d0fc      	beq.n	20000298 <mutex_enter_blocking+0x24>
2000029e:	f3bf 8f5f 	dmb	sy
200002a2:	7903      	ldrb	r3, [r0, #4]
200002a4:	2b7f      	cmp	r3, #127	@ 0x7f
200002a6:	d9ec      	bls.n	20000282 <mutex_enter_blocking+0xe>
200002a8:	7105      	strb	r5, [r0, #4]
200002aa:	6803      	ldr	r3, [r0, #0]
200002ac:	f3bf 8f5f 	dmb	sy
200002b0:	2200      	movs	r2, #0
200002b2:	601a      	str	r2, [r3, #0]
200002b4:	f381 8810 	msr	PRIMASK, r1
200002b8:	bd30      	pop	{r4, r5, pc}
200002ba:	46c0      	nop			@ (mov r8, r8)

200002bc <mutex_enter_block_until>:
200002bc:	b5f0      	push	{r4, r5, r6, r7, lr}
200002be:	464f      	mov	r7, r9
200002c0:	46d6      	mov	lr, sl
200002c2:	4646      	mov	r6, r8
200002c4:	b5c0      	push	{r6, r7, lr}
200002c6:	001f      	movs	r7, r3
200002c8:	23d0      	movs	r3, #208	@ 0xd0
200002ca:	061b      	lsls	r3, r3, #24
200002cc:	681b      	ldr	r3, [r3, #0]
200002ce:	0004      	movs	r4, r0
200002d0:	469a      	mov	sl, r3
200002d2:	2300      	movs	r3, #0
200002d4:	4690      	mov	r8, r2
200002d6:	4699      	mov	r9, r3
200002d8:	e00c      	b.n	200002f4 <mutex_enter_block_until+0x38>
200002da:	6822      	ldr	r2, [r4, #0]
200002dc:	f3bf 8f5f 	dmb	sy
200002e0:	4649      	mov	r1, r9
200002e2:	6011      	str	r1, [r2, #0]
200002e4:	f383 8810 	msr	PRIMASK, r3
200002e8:	4640      	mov	r0, r8
200002ea:	0039      	movs	r1, r7
200002ec:	f000 fcf8 	bl	20000ce0 <__best_effort_wfe_or_timeout_veneer>
200002f0:	2800      	cmp	r0, #0
200002f2:	d11a      	bne.n	2000032a <mutex_enter_block_until+0x6e>
200002f4:	6826      	ldr	r6, [r4, #0]
200002f6:	f3ef 8310 	mrs	r3, PRIMASK
200002fa:	b672      	cpsid	i
200002fc:	6835      	ldr	r5, [r6, #0]
200002fe:	2d00      	cmp	r5, #0
20000300:	d0fc      	beq.n	200002fc <mutex_enter_block_until+0x40>
20000302:	f3bf 8f5f 	dmb	sy
20000306:	7925      	ldrb	r5, [r4, #4]
20000308:	2d7f      	cmp	r5, #127	@ 0x7f
2000030a:	d9e6      	bls.n	200002da <mutex_enter_block_until+0x1e>
2000030c:	4652      	mov	r2, sl
2000030e:	7122      	strb	r2, [r4, #4]
20000310:	6822      	ldr	r2, [r4, #0]
20000312:	f3bf 8f5f 	dmb	sy
20000316:	2100      	movs	r1, #0
20000318:	6011      	str	r1, [r2, #0]
2000031a:	f383 8810 	msr	PRIMASK, r3
2000031e:	2001      	movs	r0, #1
20000320:	bce0      	pop	{r5, r6, r7}
20000322:	46ba      	mov	sl, r7
20000324:	46b1      	mov	r9, r6
20000326:	46a8      	mov	r8, r5
20000328:	bdf0      	pop	{r4, r5, r6, r7, pc}
2000032a:	2000      	movs	r0, #0
2000032c:	e7f8      	b.n	20000320 <mutex_enter_block_until+0x64>
2000032e:	46c0      	nop			@ (mov r8, r8)

20000330 <mutex_try_enter_block_until>:
20000330:	b570      	push	{r4, r5, r6, lr}
20000332:	0001      	movs	r1, r0
20000334:	6804      	ldr	r4, [r0, #0]
20000336:	f3ef 8c10 	mrs	ip, PRIMASK
2000033a:	b672      	cpsid	i
2000033c:	6820      	ldr	r0, [r4, #0]
2000033e:	2800      	cmp	r0, #0
20000340:	d0fc      	beq.n	2000033c <mutex_try_enter_block_until+0xc>
20000342:	f3bf 8f5f 	dmb	sy
20000346:	2404      	movs	r4, #4
20000348:	570c      	ldrsb	r4, [r1, r4]
2000034a:	2c00      	cmp	r4, #0
2000034c:	db12      	blt.n	20000374 <mutex_try_enter_block_until+0x44>
2000034e:	6808      	ldr	r0, [r1, #0]
20000350:	f3bf 8f5f 	dmb	sy
20000354:	2500      	movs	r5, #0
20000356:	6005      	str	r5, [r0, #0]
20000358:	f38c 8810 	msr	PRIMASK, ip
2000035c:	20d0      	movs	r0, #208	@ 0xd0
2000035e:	2500      	movs	r5, #0
20000360:	0600      	lsls	r0, r0, #24
20000362:	5745      	ldrsb	r5, [r0, r5]
20000364:	2000      	movs	r0, #0
20000366:	42a5      	cmp	r5, r4
20000368:	d100      	bne.n	2000036c <mutex_try_enter_block_until+0x3c>
2000036a:	bd70      	pop	{r4, r5, r6, pc}
2000036c:	0008      	movs	r0, r1
2000036e:	f7ff ffa5 	bl	200002bc <mutex_enter_block_until>
20000372:	e7fa      	b.n	2000036a <mutex_try_enter_block_until+0x3a>
20000374:	23d0      	movs	r3, #208	@ 0xd0
20000376:	061b      	lsls	r3, r3, #24
20000378:	681b      	ldr	r3, [r3, #0]
2000037a:	710b      	strb	r3, [r1, #4]
2000037c:	680b      	ldr	r3, [r1, #0]
2000037e:	f3bf 8f5f 	dmb	sy
20000382:	2200      	movs	r2, #0
20000384:	601a      	str	r2, [r3, #0]
20000386:	f38c 8810 	msr	PRIMASK, ip
2000038a:	2001      	movs	r0, #1
2000038c:	e7ed      	b.n	2000036a <mutex_try_enter_block_until+0x3a>
2000038e:	46c0      	nop			@ (mov r8, r8)

20000390 <mutex_exit>:
20000390:	6802      	ldr	r2, [r0, #0]
20000392:	f3ef 8110 	mrs	r1, PRIMASK
20000396:	b672      	cpsid	i
20000398:	6813      	ldr	r3, [r2, #0]
2000039a:	2b00      	cmp	r3, #0
2000039c:	d0fc      	beq.n	20000398 <mutex_exit+0x8>
2000039e:	f3bf 8f5f 	dmb	sy
200003a2:	23ff      	movs	r3, #255	@ 0xff
200003a4:	7103      	strb	r3, [r0, #4]
200003a6:	6803      	ldr	r3, [r0, #0]
200003a8:	f3bf 8f5f 	dmb	sy
200003ac:	2200      	movs	r2, #0
200003ae:	601a      	str	r2, [r3, #0]
200003b0:	f381 8810 	msr	PRIMASK, r1
200003b4:	bf40      	sev
200003b6:	4770      	bx	lr

200003b8 <dvi_dma_irq_handler>:
200003b8:	b5f0      	push	{r4, r5, r6, r7, lr}
200003ba:	46de      	mov	lr, fp
200003bc:	4657      	mov	r7, sl
200003be:	464e      	mov	r6, r9
200003c0:	4645      	mov	r5, r8
200003c2:	0001      	movs	r1, r0
200003c4:	b5e0      	push	{r5, r6, r7, lr}
200003c6:	0004      	movs	r4, r0
200003c8:	b083      	sub	sp, #12
200003ca:	6800      	ldr	r0, [r0, #0]
200003cc:	3134      	adds	r1, #52	@ 0x34
200003ce:	f000 fbc1 	bl	20000b54 <dvi_timing_state_advance>
200003d2:	239b      	movs	r3, #155	@ 0x9b
200003d4:	009b      	lsls	r3, r3, #2
200003d6:	58e3      	ldr	r3, [r4, r3]
200003d8:	2b00      	cmp	r3, #0
200003da:	d032      	beq.n	20000442 <dvi_dma_irq_handler+0x8a>
200003dc:	23a1      	movs	r3, #161	@ 0xa1
200003de:	009b      	lsls	r3, r3, #2
200003e0:	58e2      	ldr	r2, [r4, r3]
200003e2:	f3ef 8510 	mrs	r5, PRIMASK
200003e6:	b672      	cpsid	i
200003e8:	6813      	ldr	r3, [r2, #0]
200003ea:	2b00      	cmp	r3, #0
200003ec:	d0fc      	beq.n	200003e8 <dvi_dma_irq_handler+0x30>
200003ee:	f3bf 8f5f 	dmb	sy
200003f2:	23a1      	movs	r3, #161	@ 0xa1
200003f4:	009b      	lsls	r3, r3, #2
200003f6:	18e1      	adds	r1, r4, r3
200003f8:	890b      	ldrh	r3, [r1, #8]
200003fa:	894a      	ldrh	r2, [r1, #10]
200003fc:	89c8      	ldrh	r0, [r1, #14]
200003fe:	1a9a      	subs	r2, r3, r2
20000400:	d500      	bpl.n	20000404 <dvi_dma_irq_handler+0x4c>
20000402:	e11a      	b.n	2000063a <dvi_dma_irq_handler+0x282>
20000404:	26a1      	movs	r6, #161	@ 0xa1
20000406:	00b6      	lsls	r6, r6, #2
20000408:	59a6      	ldr	r6, [r4, r6]
2000040a:	46b0      	mov	r8, r6
2000040c:	4282      	cmp	r2, r0
2000040e:	d100      	bne.n	20000412 <dvi_dma_irq_handler+0x5a>
20000410:	e1b2      	b.n	20000778 <dvi_dma_irq_handler+0x3c0>
20000412:	229b      	movs	r2, #155	@ 0x9b
20000414:	0092      	lsls	r2, r2, #2
20000416:	58a2      	ldr	r2, [r4, r2]
20000418:	009f      	lsls	r7, r3, #2
2000041a:	4694      	mov	ip, r2
2000041c:	4666      	mov	r6, ip
2000041e:	684a      	ldr	r2, [r1, #4]
20000420:	3301      	adds	r3, #1
20000422:	50be      	str	r6, [r7, r2]
20000424:	2200      	movs	r2, #0
20000426:	0017      	movs	r7, r2
20000428:	b29b      	uxth	r3, r3
2000042a:	4298      	cmp	r0, r3
2000042c:	4157      	adcs	r7, r2
2000042e:	4278      	negs	r0, r7
20000430:	4003      	ands	r3, r0
20000432:	810b      	strh	r3, [r1, #8]
20000434:	f3bf 8f5f 	dmb	sy
20000438:	4643      	mov	r3, r8
2000043a:	601a      	str	r2, [r3, #0]
2000043c:	f385 8810 	msr	PRIMASK, r5
20000440:	bf40      	sev
20000442:	239a      	movs	r3, #154	@ 0x9a
20000444:	229b      	movs	r2, #155	@ 0x9b
20000446:	009b      	lsls	r3, r3, #2
20000448:	58e1      	ldr	r1, [r4, r3]
2000044a:	0092      	lsls	r2, r2, #2
2000044c:	50a1      	str	r1, [r4, r2]
2000044e:	2200      	movs	r2, #0
20000450:	50e2      	str	r2, [r4, r3]
20000452:	6823      	ldr	r3, [r4, #0]
20000454:	68a1      	ldr	r1, [r4, #8]
20000456:	691a      	ldr	r2, [r3, #16]
20000458:	4b8e      	ldr	r3, [pc, #568]	@ (20000694 <dvi_dma_irq_handler+0x2dc>)
2000045a:	0189      	lsls	r1, r1, #6
2000045c:	469c      	mov	ip, r3
2000045e:	0852      	lsrs	r2, r2, #1
20000460:	4461      	add	r1, ip
20000462:	680b      	ldr	r3, [r1, #0]
20000464:	429a      	cmp	r2, r3
20000466:	d1fc      	bne.n	20000462 <dvi_dma_irq_handler+0xaa>
20000468:	4b8a      	ldr	r3, [pc, #552]	@ (20000694 <dvi_dma_irq_handler+0x2dc>)
2000046a:	69a1      	ldr	r1, [r4, #24]
2000046c:	469c      	mov	ip, r3
2000046e:	0189      	lsls	r1, r1, #6
20000470:	4461      	add	r1, ip
20000472:	680b      	ldr	r3, [r1, #0]
20000474:	429a      	cmp	r2, r3
20000476:	d1fc      	bne.n	20000472 <dvi_dma_irq_handler+0xba>
20000478:	4b86      	ldr	r3, [pc, #536]	@ (20000694 <dvi_dma_irq_handler+0x2dc>)
2000047a:	6aa1      	ldr	r1, [r4, #40]	@ 0x28
2000047c:	469c      	mov	ip, r3
2000047e:	0189      	lsls	r1, r1, #6
20000480:	4461      	add	r1, ip
20000482:	680b      	ldr	r3, [r1, #0]
20000484:	4293      	cmp	r3, r2
20000486:	d1fc      	bne.n	20000482 <dvi_dma_irq_handler+0xca>
20000488:	229d      	movs	r2, #157	@ 0x9d
2000048a:	239c      	movs	r3, #156	@ 0x9c
2000048c:	0092      	lsls	r2, r2, #2
2000048e:	4693      	mov	fp, r2
20000490:	009b      	lsls	r3, r3, #2
20000492:	58e3      	ldr	r3, [r4, r3]
20000494:	44a3      	add	fp, r4
20000496:	2b00      	cmp	r3, #0
20000498:	d100      	bne.n	2000049c <dvi_dma_irq_handler+0xe4>
2000049a:	e079      	b.n	20000590 <dvi_dma_irq_handler+0x1d8>
2000049c:	23a1      	movs	r3, #161	@ 0xa1
2000049e:	009b      	lsls	r3, r3, #2
200004a0:	2000      	movs	r0, #0
200004a2:	001e      	movs	r6, r3
200004a4:	46d8      	mov	r8, fp
200004a6:	18e2      	adds	r2, r4, r3
200004a8:	e01c      	b.n	200004e4 <dvi_dma_irq_handler+0x12c>
200004aa:	46ab      	mov	fp, r5
200004ac:	464d      	mov	r5, r9
200004ae:	9701      	str	r7, [sp, #4]
200004b0:	6857      	ldr	r7, [r2, #4]
200004b2:	0099      	lsls	r1, r3, #2
200004b4:	51cd      	str	r5, [r1, r7]
200004b6:	0001      	movs	r1, r0
200004b8:	465d      	mov	r5, fp
200004ba:	3301      	adds	r3, #1
200004bc:	b29b      	uxth	r3, r3
200004be:	429d      	cmp	r5, r3
200004c0:	4141      	adcs	r1, r0
200004c2:	4249      	negs	r1, r1
200004c4:	400b      	ands	r3, r1
200004c6:	8113      	strh	r3, [r2, #8]
200004c8:	f3bf 8f5f 	dmb	sy
200004cc:	9b01      	ldr	r3, [sp, #4]
200004ce:	6018      	str	r0, [r3, #0]
200004d0:	f38c 8810 	msr	PRIMASK, ip
200004d4:	bf40      	sev
200004d6:	219c      	movs	r1, #156	@ 0x9c
200004d8:	0089      	lsls	r1, r1, #2
200004da:	5863      	ldr	r3, [r4, r1]
200004dc:	3b01      	subs	r3, #1
200004de:	5063      	str	r3, [r4, r1]
200004e0:	2b00      	cmp	r3, #0
200004e2:	d055      	beq.n	20000590 <dvi_dma_irq_handler+0x1d8>
200004e4:	239d      	movs	r3, #157	@ 0x9d
200004e6:	009b      	lsls	r3, r3, #2
200004e8:	58e1      	ldr	r1, [r4, r3]
200004ea:	f3ef 8510 	mrs	r5, PRIMASK
200004ee:	b672      	cpsid	i
200004f0:	680b      	ldr	r3, [r1, #0]
200004f2:	2b00      	cmp	r3, #0
200004f4:	d0fc      	beq.n	200004f0 <dvi_dma_irq_handler+0x138>
200004f6:	f3bf 8f5f 	dmb	sy
200004fa:	4643      	mov	r3, r8
200004fc:	4641      	mov	r1, r8
200004fe:	895b      	ldrh	r3, [r3, #10]
20000500:	8909      	ldrh	r1, [r1, #8]
20000502:	1ac9      	subs	r1, r1, r3
20000504:	d506      	bpl.n	20000514 <dvi_dma_irq_handler+0x15c>
20000506:	4647      	mov	r7, r8
20000508:	89ff      	ldrh	r7, [r7, #14]
2000050a:	46bc      	mov	ip, r7
2000050c:	2701      	movs	r7, #1
2000050e:	46b9      	mov	r9, r7
20000510:	44cc      	add	ip, r9
20000512:	4461      	add	r1, ip
20000514:	2900      	cmp	r1, #0
20000516:	d033      	beq.n	20000580 <dvi_dma_irq_handler+0x1c8>
20000518:	4641      	mov	r1, r8
2000051a:	6849      	ldr	r1, [r1, #4]
2000051c:	009f      	lsls	r7, r3, #2
2000051e:	5879      	ldr	r1, [r7, r1]
20000520:	0007      	movs	r7, r0
20000522:	4689      	mov	r9, r1
20000524:	4641      	mov	r1, r8
20000526:	3301      	adds	r3, #1
20000528:	89c9      	ldrh	r1, [r1, #14]
2000052a:	b29b      	uxth	r3, r3
2000052c:	4299      	cmp	r1, r3
2000052e:	4147      	adcs	r7, r0
20000530:	4279      	negs	r1, r7
20000532:	400b      	ands	r3, r1
20000534:	4641      	mov	r1, r8
20000536:	814b      	strh	r3, [r1, #10]
20000538:	239d      	movs	r3, #157	@ 0x9d
2000053a:	009b      	lsls	r3, r3, #2
2000053c:	58e3      	ldr	r3, [r4, r3]
2000053e:	f3bf 8f5f 	dmb	sy
20000542:	6018      	str	r0, [r3, #0]
20000544:	f385 8810 	msr	PRIMASK, r5
20000548:	bf40      	sev
2000054a:	59a1      	ldr	r1, [r4, r6]
2000054c:	f3ef 8c10 	mrs	ip, PRIMASK
20000550:	b672      	cpsid	i
20000552:	680b      	ldr	r3, [r1, #0]
20000554:	2b00      	cmp	r3, #0
20000556:	d0fc      	beq.n	20000552 <dvi_dma_irq_handler+0x19a>
20000558:	f3bf 8f5f 	dmb	sy
2000055c:	8913      	ldrh	r3, [r2, #8]
2000055e:	8951      	ldrh	r1, [r2, #10]
20000560:	89d5      	ldrh	r5, [r2, #14]
20000562:	1a59      	subs	r1, r3, r1
20000564:	d501      	bpl.n	2000056a <dvi_dma_irq_handler+0x1b2>
20000566:	1c6f      	adds	r7, r5, #1
20000568:	19c9      	adds	r1, r1, r7
2000056a:	59a7      	ldr	r7, [r4, r6]
2000056c:	42a9      	cmp	r1, r5
2000056e:	d000      	beq.n	20000572 <dvi_dma_irq_handler+0x1ba>
20000570:	e79b      	b.n	200004aa <dvi_dma_irq_handler+0xf2>
20000572:	f3bf 8f5f 	dmb	sy
20000576:	6038      	str	r0, [r7, #0]
20000578:	f38c 8810 	msr	PRIMASK, ip
2000057c:	bf20      	wfe
2000057e:	e7e4      	b.n	2000054a <dvi_dma_irq_handler+0x192>
20000580:	239d      	movs	r3, #157	@ 0x9d
20000582:	009b      	lsls	r3, r3, #2
20000584:	58e3      	ldr	r3, [r4, r3]
20000586:	f3bf 8f5f 	dmb	sy
2000058a:	6019      	str	r1, [r3, #0]
2000058c:	f385 8810 	msr	PRIMASK, r5
20000590:	2338      	movs	r3, #56	@ 0x38
20000592:	5ce3      	ldrb	r3, [r4, r3]
20000594:	2b03      	cmp	r3, #3
20000596:	d100      	bne.n	2000059a <dvi_dma_irq_handler+0x1e2>
20000598:	e082      	b.n	200006a0 <dvi_dma_irq_handler+0x2e8>
2000059a:	2b01      	cmp	r3, #1
2000059c:	d02c      	beq.n	200005f8 <dvi_dma_irq_handler+0x240>
2000059e:	23e8      	movs	r3, #232	@ 0xe8
200005a0:	4698      	mov	r8, r3
200005a2:	3be4      	subs	r3, #228	@ 0xe4
200005a4:	2500      	movs	r5, #0
200005a6:	469c      	mov	ip, r3
200005a8:	46a3      	mov	fp, r4
200005aa:	4f3b      	ldr	r7, [pc, #236]	@ (20000698 <dvi_dma_irq_handler+0x2e0>)
200005ac:	4e3b      	ldr	r6, [pc, #236]	@ (2000069c <dvi_dma_irq_handler+0x2e4>)
200005ae:	1d20      	adds	r0, r4, #4
200005b0:	44a0      	add	r8, r4
200005b2:	24a0      	movs	r4, #160	@ 0xa0
200005b4:	05e4      	lsls	r4, r4, #23
200005b6:	46a1      	mov	r9, r4
200005b8:	6803      	ldr	r3, [r0, #0]
200005ba:	6841      	ldr	r1, [r0, #4]
200005bc:	02da      	lsls	r2, r3, #11
200005be:	403a      	ands	r2, r7
200005c0:	0189      	lsls	r1, r1, #6
200005c2:	4449      	add	r1, r9
200005c4:	4332      	orrs	r2, r6
200005c6:	46c1      	mov	r9, r8
200005c8:	2d00      	cmp	r5, #0
200005ca:	d044      	beq.n	20000656 <dvi_dma_irq_handler+0x29e>
200005cc:	2d01      	cmp	r5, #1
200005ce:	d03e      	beq.n	2000064e <dvi_dma_irq_handler+0x296>
200005d0:	20a0      	movs	r0, #160	@ 0xa0
200005d2:	465c      	mov	r4, fp
200005d4:	05c0      	lsls	r0, r0, #23
200005d6:	4684      	mov	ip, r0
200005d8:	019b      	lsls	r3, r3, #6
200005da:	3449      	adds	r4, #73	@ 0x49
200005dc:	4463      	add	r3, ip
200005de:	34ff      	adds	r4, #255	@ 0xff
200005e0:	601c      	str	r4, [r3, #0]
200005e2:	6059      	str	r1, [r3, #4]
200005e4:	2104      	movs	r1, #4
200005e6:	6099      	str	r1, [r3, #8]
200005e8:	611a      	str	r2, [r3, #16]
200005ea:	b003      	add	sp, #12
200005ec:	bcf0      	pop	{r4, r5, r6, r7}
200005ee:	46bb      	mov	fp, r7
200005f0:	46b2      	mov	sl, r6
200005f2:	46a9      	mov	r9, r5
200005f4:	46a0      	mov	r8, r4
200005f6:	bdf0      	pop	{r4, r5, r6, r7, pc}
200005f8:	2368      	movs	r3, #104	@ 0x68
200005fa:	4698      	mov	r8, r3
200005fc:	3b64      	subs	r3, #100	@ 0x64
200005fe:	2500      	movs	r5, #0
20000600:	469c      	mov	ip, r3
20000602:	46a3      	mov	fp, r4
20000604:	4f24      	ldr	r7, [pc, #144]	@ (20000698 <dvi_dma_irq_handler+0x2e0>)
20000606:	4e25      	ldr	r6, [pc, #148]	@ (2000069c <dvi_dma_irq_handler+0x2e4>)
20000608:	1d20      	adds	r0, r4, #4
2000060a:	44a0      	add	r8, r4
2000060c:	24a0      	movs	r4, #160	@ 0xa0
2000060e:	05e4      	lsls	r4, r4, #23
20000610:	46a1      	mov	r9, r4
20000612:	6803      	ldr	r3, [r0, #0]
20000614:	6841      	ldr	r1, [r0, #4]
20000616:	02da      	lsls	r2, r3, #11
20000618:	403a      	ands	r2, r7
2000061a:	0189      	lsls	r1, r1, #6
2000061c:	4449      	add	r1, r9
2000061e:	4332      	orrs	r2, r6
20000620:	46c1      	mov	r9, r8
20000622:	2d00      	cmp	r5, #0
20000624:	d028      	beq.n	20000678 <dvi_dma_irq_handler+0x2c0>
20000626:	2d01      	cmp	r5, #1
20000628:	d023      	beq.n	20000672 <dvi_dma_irq_handler+0x2ba>
2000062a:	20a0      	movs	r0, #160	@ 0xa0
2000062c:	05c0      	lsls	r0, r0, #23
2000062e:	465c      	mov	r4, fp
20000630:	4684      	mov	ip, r0
20000632:	019b      	lsls	r3, r3, #6
20000634:	4463      	add	r3, ip
20000636:	34c8      	adds	r4, #200	@ 0xc8
20000638:	e7d2      	b.n	200005e0 <dvi_dma_irq_handler+0x228>
2000063a:	1c46      	adds	r6, r0, #1
2000063c:	1992      	adds	r2, r2, r6
2000063e:	26a1      	movs	r6, #161	@ 0xa1
20000640:	00b6      	lsls	r6, r6, #2
20000642:	59a6      	ldr	r6, [r4, r6]
20000644:	46b0      	mov	r8, r6
20000646:	4282      	cmp	r2, r0
20000648:	d000      	beq.n	2000064c <dvi_dma_irq_handler+0x294>
2000064a:	e6e2      	b.n	20000412 <dvi_dma_irq_handler+0x5a>
2000064c:	e094      	b.n	20000778 <dvi_dma_irq_handler+0x3c0>
2000064e:	2494      	movs	r4, #148	@ 0x94
20000650:	0064      	lsls	r4, r4, #1
20000652:	46a1      	mov	r9, r4
20000654:	44d9      	add	r9, fp
20000656:	24a0      	movs	r4, #160	@ 0xa0
20000658:	05e4      	lsls	r4, r4, #23
2000065a:	46a2      	mov	sl, r4
2000065c:	464c      	mov	r4, r9
2000065e:	019b      	lsls	r3, r3, #6
20000660:	4453      	add	r3, sl
20000662:	601c      	str	r4, [r3, #0]
20000664:	6059      	str	r1, [r3, #4]
20000666:	4661      	mov	r1, ip
20000668:	3501      	adds	r5, #1
2000066a:	6099      	str	r1, [r3, #8]
2000066c:	3010      	adds	r0, #16
2000066e:	611a      	str	r2, [r3, #16]
20000670:	e79f      	b.n	200005b2 <dvi_dma_irq_handler+0x1fa>
20000672:	24a8      	movs	r4, #168	@ 0xa8
20000674:	46a1      	mov	r9, r4
20000676:	44d9      	add	r9, fp
20000678:	24a0      	movs	r4, #160	@ 0xa0
2000067a:	05e4      	lsls	r4, r4, #23
2000067c:	46a2      	mov	sl, r4
2000067e:	464c      	mov	r4, r9
20000680:	019b      	lsls	r3, r3, #6
20000682:	4453      	add	r3, sl
20000684:	601c      	str	r4, [r3, #0]
20000686:	6059      	str	r1, [r3, #4]
20000688:	4661      	mov	r1, ip
2000068a:	3501      	adds	r5, #1
2000068c:	6099      	str	r1, [r3, #8]
2000068e:	3010      	adds	r0, #16
20000690:	611a      	str	r2, [r3, #16]
20000692:	e7bb      	b.n	2000060c <dvi_dma_irq_handler+0x254>
20000694:	50000804 	.word	0x50000804
20000698:	ff1ffffd 	.word	0xff1ffffd
2000069c:	001f8539 	.word	0x001f8539
200006a0:	239d      	movs	r3, #157	@ 0x9d
200006a2:	009b      	lsls	r3, r3, #2
200006a4:	58e3      	ldr	r3, [r4, r3]
200006a6:	f3ef 8010 	mrs	r0, PRIMASK
200006aa:	b672      	cpsid	i
200006ac:	681a      	ldr	r2, [r3, #0]
200006ae:	2a00      	cmp	r2, #0
200006b0:	d0fc      	beq.n	200006ac <dvi_dma_irq_handler+0x2f4>
200006b2:	f3bf 8f5f 	dmb	sy
200006b6:	239d      	movs	r3, #157	@ 0x9d
200006b8:	009b      	lsls	r3, r3, #2
200006ba:	469b      	mov	fp, r3
200006bc:	44a3      	add	fp, r4
200006be:	465b      	mov	r3, fp
200006c0:	895a      	ldrh	r2, [r3, #10]
200006c2:	891b      	ldrh	r3, [r3, #8]
200006c4:	1a9b      	subs	r3, r3, r2
200006c6:	d500      	bpl.n	200006ca <dvi_dma_irq_handler+0x312>
200006c8:	e0cb      	b.n	20000862 <dvi_dma_irq_handler+0x4aa>
200006ca:	219d      	movs	r1, #157	@ 0x9d
200006cc:	0089      	lsls	r1, r1, #2
200006ce:	5865      	ldr	r5, [r4, r1]
200006d0:	2b00      	cmp	r3, #0
200006d2:	d05a      	beq.n	2000078a <dvi_dma_irq_handler+0x3d2>
200006d4:	465b      	mov	r3, fp
200006d6:	685b      	ldr	r3, [r3, #4]
200006d8:	0092      	lsls	r2, r2, #2
200006da:	58d2      	ldr	r2, [r2, r3]
200006dc:	f3bf 8f5f 	dmb	sy
200006e0:	2300      	movs	r3, #0
200006e2:	602b      	str	r3, [r5, #0]
200006e4:	f380 8810 	msr	PRIMASK, r0
200006e8:	6b63      	ldr	r3, [r4, #52]	@ 0x34
200006ea:	465e      	mov	r6, fp
200006ec:	07db      	lsls	r3, r3, #31
200006ee:	d500      	bpl.n	200006f2 <dvi_dma_irq_handler+0x33a>
200006f0:	e08b      	b.n	2000080a <dvi_dma_irq_handler+0x452>
200006f2:	0011      	movs	r1, r2
200006f4:	2338      	movs	r3, #56	@ 0x38
200006f6:	5ce3      	ldrb	r3, [r4, r3]
200006f8:	2b01      	cmp	r3, #1
200006fa:	d100      	bne.n	200006fe <dvi_dma_irq_handler+0x346>
200006fc:	e77c      	b.n	200005f8 <dvi_dma_irq_handler+0x240>
200006fe:	2b03      	cmp	r3, #3
20000700:	d000      	beq.n	20000704 <dvi_dma_irq_handler+0x34c>
20000702:	e74c      	b.n	2000059e <dvi_dma_irq_handler+0x1e6>
20000704:	2900      	cmp	r1, #0
20000706:	d055      	beq.n	200007b4 <dvi_dma_irq_handler+0x3fc>
20000708:	0026      	movs	r6, r4
2000070a:	0025      	movs	r5, r4
2000070c:	3669      	adds	r6, #105	@ 0x69
2000070e:	36ff      	adds	r6, #255	@ 0xff
20000710:	cd01      	ldmia	r5!, {r0}
20000712:	0032      	movs	r2, r6
20000714:	f000 fa40 	bl	20000b98 <dvi_update_scanline_data_dma>
20000718:	4b67      	ldr	r3, [pc, #412]	@ (200008b8 <dvi_dma_irq_handler+0x500>)
2000071a:	2000      	movs	r0, #0
2000071c:	469c      	mov	ip, r3
2000071e:	2304      	movs	r3, #4
20000720:	46a3      	mov	fp, r4
20000722:	4698      	mov	r8, r3
20000724:	4f65      	ldr	r7, [pc, #404]	@ (200008bc <dvi_dma_irq_handler+0x504>)
20000726:	24a0      	movs	r4, #160	@ 0xa0
20000728:	4661      	mov	r1, ip
2000072a:	05e4      	lsls	r4, r4, #23
2000072c:	46a1      	mov	r9, r4
2000072e:	682b      	ldr	r3, [r5, #0]
20000730:	02da      	lsls	r2, r3, #11
20000732:	400a      	ands	r2, r1
20000734:	6869      	ldr	r1, [r5, #4]
20000736:	433a      	orrs	r2, r7
20000738:	0189      	lsls	r1, r1, #6
2000073a:	4449      	add	r1, r9
2000073c:	2800      	cmp	r0, #0
2000073e:	d100      	bne.n	20000742 <dvi_dma_irq_handler+0x38a>
20000740:	e0a6      	b.n	20000890 <dvi_dma_irq_handler+0x4d8>
20000742:	2801      	cmp	r0, #1
20000744:	d100      	bne.n	20000748 <dvi_dma_irq_handler+0x390>
20000746:	e0b2      	b.n	200008ae <dvi_dma_irq_handler+0x4f6>
20000748:	20a0      	movs	r0, #160	@ 0xa0
2000074a:	465c      	mov	r4, fp
2000074c:	05c0      	lsls	r0, r0, #23
2000074e:	4684      	mov	ip, r0
20000750:	0020      	movs	r0, r4
20000752:	019b      	lsls	r3, r3, #6
20000754:	30c9      	adds	r0, #201	@ 0xc9
20000756:	4463      	add	r3, ip
20000758:	30ff      	adds	r0, #255	@ 0xff
2000075a:	6018      	str	r0, [r3, #0]
2000075c:	6059      	str	r1, [r3, #4]
2000075e:	2104      	movs	r1, #4
20000760:	6099      	str	r1, [r3, #8]
20000762:	611a      	str	r2, [r3, #16]
20000764:	6e63      	ldr	r3, [r4, #100]	@ 0x64
20000766:	2b00      	cmp	r3, #0
20000768:	d100      	bne.n	2000076c <dvi_dma_irq_handler+0x3b4>
2000076a:	e73e      	b.n	200005ea <dvi_dma_irq_handler+0x232>
2000076c:	6b62      	ldr	r2, [r4, #52]	@ 0x34
2000076e:	07d2      	lsls	r2, r2, #31
20000770:	d400      	bmi.n	20000774 <dvi_dma_irq_handler+0x3bc>
20000772:	e73a      	b.n	200005ea <dvi_dma_irq_handler+0x232>
20000774:	4798      	blx	r3
20000776:	e738      	b.n	200005ea <dvi_dma_irq_handler+0x232>
20000778:	f3bf 8f5f 	dmb	sy
2000077c:	2300      	movs	r3, #0
2000077e:	6033      	str	r3, [r6, #0]
20000780:	f385 8810 	msr	PRIMASK, r5
20000784:	484e      	ldr	r0, [pc, #312]	@ (200008c0 <dvi_dma_irq_handler+0x508>)
20000786:	f000 fab3 	bl	20000cf0 <__panic_veneer>
2000078a:	f3bf 8f5f 	dmb	sy
2000078e:	602b      	str	r3, [r5, #0]
20000790:	f380 8810 	msr	PRIMASK, r0
20000794:	6b63      	ldr	r3, [r4, #52]	@ 0x34
20000796:	07db      	lsls	r3, r3, #31
20000798:	d504      	bpl.n	200007a4 <dvi_dma_irq_handler+0x3ec>
2000079a:	229c      	movs	r2, #156	@ 0x9c
2000079c:	0092      	lsls	r2, r2, #2
2000079e:	58a3      	ldr	r3, [r4, r2]
200007a0:	3301      	adds	r3, #1
200007a2:	50a3      	str	r3, [r4, r2]
200007a4:	2338      	movs	r3, #56	@ 0x38
200007a6:	5ce3      	ldrb	r3, [r4, r3]
200007a8:	2b01      	cmp	r3, #1
200007aa:	d100      	bne.n	200007ae <dvi_dma_irq_handler+0x3f6>
200007ac:	e724      	b.n	200005f8 <dvi_dma_irq_handler+0x240>
200007ae:	2b03      	cmp	r3, #3
200007b0:	d000      	beq.n	200007b4 <dvi_dma_irq_handler+0x3fc>
200007b2:	e6f4      	b.n	2000059e <dvi_dma_irq_handler+0x1e6>
200007b4:	23f4      	movs	r3, #244	@ 0xf4
200007b6:	005b      	lsls	r3, r3, #1
200007b8:	4698      	mov	r8, r3
200007ba:	3be5      	subs	r3, #229	@ 0xe5
200007bc:	3bff      	subs	r3, #255	@ 0xff
200007be:	2500      	movs	r5, #0
200007c0:	469c      	mov	ip, r3
200007c2:	46a3      	mov	fp, r4
200007c4:	4f3c      	ldr	r7, [pc, #240]	@ (200008b8 <dvi_dma_irq_handler+0x500>)
200007c6:	4e3d      	ldr	r6, [pc, #244]	@ (200008bc <dvi_dma_irq_handler+0x504>)
200007c8:	1d20      	adds	r0, r4, #4
200007ca:	44a0      	add	r8, r4
200007cc:	24a0      	movs	r4, #160	@ 0xa0
200007ce:	05e4      	lsls	r4, r4, #23
200007d0:	46a1      	mov	r9, r4
200007d2:	6803      	ldr	r3, [r0, #0]
200007d4:	6841      	ldr	r1, [r0, #4]
200007d6:	02da      	lsls	r2, r3, #11
200007d8:	403a      	ands	r2, r7
200007da:	0189      	lsls	r1, r1, #6
200007dc:	4449      	add	r1, r9
200007de:	4332      	orrs	r2, r6
200007e0:	46c1      	mov	r9, r8
200007e2:	2d00      	cmp	r5, #0
200007e4:	d046      	beq.n	20000874 <dvi_dma_irq_handler+0x4bc>
200007e6:	2d01      	cmp	r5, #1
200007e8:	d040      	beq.n	2000086c <dvi_dma_irq_handler+0x4b4>
200007ea:	20a0      	movs	r0, #160	@ 0xa0
200007ec:	05c0      	lsls	r0, r0, #23
200007ee:	4684      	mov	ip, r0
200007f0:	2092      	movs	r0, #146	@ 0x92
200007f2:	465c      	mov	r4, fp
200007f4:	019b      	lsls	r3, r3, #6
200007f6:	0080      	lsls	r0, r0, #2
200007f8:	4463      	add	r3, ip
200007fa:	1820      	adds	r0, r4, r0
200007fc:	e7ad      	b.n	2000075a <dvi_dma_irq_handler+0x3a2>
200007fe:	f3bf 8f5f 	dmb	sy
20000802:	602b      	str	r3, [r5, #0]
20000804:	f380 8810 	msr	PRIMASK, r0
20000808:	bf20      	wfe
2000080a:	5862      	ldr	r2, [r4, r1]
2000080c:	f3ef 8010 	mrs	r0, PRIMASK
20000810:	b672      	cpsid	i
20000812:	6813      	ldr	r3, [r2, #0]
20000814:	2b00      	cmp	r3, #0
20000816:	d0fc      	beq.n	20000812 <dvi_dma_irq_handler+0x45a>
20000818:	f3bf 8f5f 	dmb	sy
2000081c:	8972      	ldrh	r2, [r6, #10]
2000081e:	8933      	ldrh	r3, [r6, #8]
20000820:	1a9b      	subs	r3, r3, r2
20000822:	d502      	bpl.n	2000082a <dvi_dma_irq_handler+0x472>
20000824:	89f5      	ldrh	r5, [r6, #14]
20000826:	3501      	adds	r5, #1
20000828:	195b      	adds	r3, r3, r5
2000082a:	5865      	ldr	r5, [r4, r1]
2000082c:	2b00      	cmp	r3, #0
2000082e:	d0e6      	beq.n	200007fe <dvi_dma_irq_handler+0x446>
20000830:	6873      	ldr	r3, [r6, #4]
20000832:	0091      	lsls	r1, r2, #2
20000834:	58c9      	ldr	r1, [r1, r3]
20000836:	2300      	movs	r3, #0
20000838:	001f      	movs	r7, r3
2000083a:	46b3      	mov	fp, r6
2000083c:	3201      	adds	r2, #1
2000083e:	89f6      	ldrh	r6, [r6, #14]
20000840:	b292      	uxth	r2, r2
20000842:	4296      	cmp	r6, r2
20000844:	415f      	adcs	r7, r3
20000846:	427e      	negs	r6, r7
20000848:	4032      	ands	r2, r6
2000084a:	465e      	mov	r6, fp
2000084c:	8172      	strh	r2, [r6, #10]
2000084e:	f3bf 8f5f 	dmb	sy
20000852:	602b      	str	r3, [r5, #0]
20000854:	f380 8810 	msr	PRIMASK, r0
20000858:	bf40      	sev
2000085a:	239a      	movs	r3, #154	@ 0x9a
2000085c:	009b      	lsls	r3, r3, #2
2000085e:	50e1      	str	r1, [r4, r3]
20000860:	e748      	b.n	200006f4 <dvi_dma_irq_handler+0x33c>
20000862:	4659      	mov	r1, fp
20000864:	89c9      	ldrh	r1, [r1, #14]
20000866:	3101      	adds	r1, #1
20000868:	185b      	adds	r3, r3, r1
2000086a:	e72e      	b.n	200006ca <dvi_dma_irq_handler+0x312>
2000086c:	248a      	movs	r4, #138	@ 0x8a
2000086e:	00a4      	lsls	r4, r4, #2
20000870:	46a1      	mov	r9, r4
20000872:	44d9      	add	r9, fp
20000874:	24a0      	movs	r4, #160	@ 0xa0
20000876:	05e4      	lsls	r4, r4, #23
20000878:	46a2      	mov	sl, r4
2000087a:	464c      	mov	r4, r9
2000087c:	019b      	lsls	r3, r3, #6
2000087e:	4453      	add	r3, sl
20000880:	601c      	str	r4, [r3, #0]
20000882:	6059      	str	r1, [r3, #4]
20000884:	4661      	mov	r1, ip
20000886:	3501      	adds	r5, #1
20000888:	6099      	str	r1, [r3, #8]
2000088a:	3010      	adds	r0, #16
2000088c:	611a      	str	r2, [r3, #16]
2000088e:	e79d      	b.n	200007cc <dvi_dma_irq_handler+0x414>
20000890:	46b1      	mov	r9, r6
20000892:	24a0      	movs	r4, #160	@ 0xa0
20000894:	05e4      	lsls	r4, r4, #23
20000896:	46a2      	mov	sl, r4
20000898:	464c      	mov	r4, r9
2000089a:	019b      	lsls	r3, r3, #6
2000089c:	4453      	add	r3, sl
2000089e:	601c      	str	r4, [r3, #0]
200008a0:	6059      	str	r1, [r3, #4]
200008a2:	4641      	mov	r1, r8
200008a4:	3001      	adds	r0, #1
200008a6:	6099      	str	r1, [r3, #8]
200008a8:	3510      	adds	r5, #16
200008aa:	611a      	str	r2, [r3, #16]
200008ac:	e73b      	b.n	20000726 <dvi_dma_irq_handler+0x36e>
200008ae:	24d4      	movs	r4, #212	@ 0xd4
200008b0:	0064      	lsls	r4, r4, #1
200008b2:	46a1      	mov	r9, r4
200008b4:	44d9      	add	r9, fp
200008b6:	e7ec      	b.n	20000892 <dvi_dma_irq_handler+0x4da>
200008b8:	ff1ffffd 	.word	0xff1ffffd
200008bc:	001f8539 	.word	0x001f8539
200008c0:	10003b88 	.word	0x10003b88

200008c4 <dvi_dma1_irq>:
200008c4:	4b06      	ldr	r3, [pc, #24]	@ (200008e0 <dvi_dma1_irq+0x1c>)
200008c6:	21a0      	movs	r1, #160	@ 0xa0
200008c8:	6858      	ldr	r0, [r3, #4]
200008ca:	2301      	movs	r3, #1
200008cc:	6882      	ldr	r2, [r0, #8]
200008ce:	b510      	push	{r4, lr}
200008d0:	4093      	lsls	r3, r2
200008d2:	4a04      	ldr	r2, [pc, #16]	@ (200008e4 <dvi_dma1_irq+0x20>)
200008d4:	05c9      	lsls	r1, r1, #23
200008d6:	508b      	str	r3, [r1, r2]
200008d8:	f7ff fd6e 	bl	200003b8 <dvi_dma_irq_handler>
200008dc:	bd10      	pop	{r4, pc}
200008de:	46c0      	nop			@ (mov r8, r8)
200008e0:	20001d90 	.word	0x20001d90
200008e4:	0000041c 	.word	0x0000041c

200008e8 <dvi_dma0_irq>:
200008e8:	4b06      	ldr	r3, [pc, #24]	@ (20000904 <dvi_dma0_irq+0x1c>)
200008ea:	21a0      	movs	r1, #160	@ 0xa0
200008ec:	6818      	ldr	r0, [r3, #0]
200008ee:	2301      	movs	r3, #1
200008f0:	6882      	ldr	r2, [r0, #8]
200008f2:	b510      	push	{r4, lr}
200008f4:	4093      	lsls	r3, r2
200008f6:	4a04      	ldr	r2, [pc, #16]	@ (20000908 <dvi_dma0_irq+0x20>)
200008f8:	05c9      	lsls	r1, r1, #23
200008fa:	508b      	str	r3, [r1, r2]
200008fc:	f7ff fd5c 	bl	200003b8 <dvi_dma_irq_handler>
20000900:	bd10      	pop	{r4, pc}
20000902:	46c0      	nop			@ (mov r8, r8)
20000904:	20001d90 	.word	0x20001d90
20000908:	0000040c 	.word	0x0000040c

2000090c <dvi_scanbuf_main_16bpp>:
2000090c:	23a5      	movs	r3, #165	@ 0xa5
2000090e:	b5f0      	push	{r4, r5, r6, r7, lr}
20000910:	4657      	mov	r7, sl
20000912:	464e      	mov	r6, r9
20000914:	46de      	mov	lr, fp
20000916:	4645      	mov	r5, r8
20000918:	009b      	lsls	r3, r3, #2
2000091a:	469a      	mov	sl, r3
2000091c:	3b10      	subs	r3, #16
2000091e:	4699      	mov	r9, r3
20000920:	3b10      	subs	r3, #16
20000922:	b5e0      	push	{r5, r6, r7, lr}
20000924:	18c6      	adds	r6, r0, r3
20000926:	3330      	adds	r3, #48	@ 0x30
20000928:	469b      	mov	fp, r3
2000092a:	4483      	add	fp, r0
2000092c:	0005      	movs	r5, r0
2000092e:	465f      	mov	r7, fp
20000930:	b085      	sub	sp, #20
20000932:	4482      	add	sl, r0
20000934:	4481      	add	r9, r0
20000936:	23a5      	movs	r3, #165	@ 0xa5
20000938:	009b      	lsls	r3, r3, #2
2000093a:	58e9      	ldr	r1, [r5, r3]
2000093c:	f3ef 8210 	mrs	r2, PRIMASK
20000940:	b672      	cpsid	i
20000942:	680b      	ldr	r3, [r1, #0]
20000944:	2b00      	cmp	r3, #0
20000946:	d0fc      	beq.n	20000942 <dvi_scanbuf_main_16bpp+0x36>
20000948:	f3bf 8f5f 	dmb	sy
2000094c:	4653      	mov	r3, sl
2000094e:	8958      	ldrh	r0, [r3, #10]
20000950:	891b      	ldrh	r3, [r3, #8]
20000952:	1a1b      	subs	r3, r3, r0
20000954:	d503      	bpl.n	2000095e <dvi_scanbuf_main_16bpp+0x52>
20000956:	4651      	mov	r1, sl
20000958:	89c9      	ldrh	r1, [r1, #14]
2000095a:	3101      	adds	r1, #1
2000095c:	185b      	adds	r3, r3, r1
2000095e:	21a5      	movs	r1, #165	@ 0xa5
20000960:	0089      	lsls	r1, r1, #2
20000962:	5869      	ldr	r1, [r5, r1]
20000964:	4688      	mov	r8, r1
20000966:	2b00      	cmp	r3, #0
20000968:	d100      	bne.n	2000096c <dvi_scanbuf_main_16bpp+0x60>
2000096a:	e0ec      	b.n	20000b46 <dvi_scanbuf_main_16bpp+0x23a>
2000096c:	4653      	mov	r3, sl
2000096e:	685b      	ldr	r3, [r3, #4]
20000970:	0084      	lsls	r4, r0, #2
20000972:	58e3      	ldr	r3, [r4, r3]
20000974:	3001      	adds	r0, #1
20000976:	469b      	mov	fp, r3
20000978:	b283      	uxth	r3, r0
2000097a:	4650      	mov	r0, sl
2000097c:	2100      	movs	r1, #0
2000097e:	2400      	movs	r4, #0
20000980:	89c0      	ldrh	r0, [r0, #14]
20000982:	4298      	cmp	r0, r3
20000984:	414c      	adcs	r4, r1
20000986:	4260      	negs	r0, r4
20000988:	4003      	ands	r3, r0
2000098a:	4650      	mov	r0, sl
2000098c:	8143      	strh	r3, [r0, #10]
2000098e:	f3bf 8f5f 	dmb	sy
20000992:	4643      	mov	r3, r8
20000994:	6019      	str	r1, [r3, #0]
20000996:	f382 8810 	msr	PRIMASK, r2
2000099a:	bf40      	sev
2000099c:	23a1      	movs	r3, #161	@ 0xa1
2000099e:	009b      	lsls	r3, r3, #2
200009a0:	469c      	mov	ip, r3
200009a2:	4649      	mov	r1, r9
200009a4:	4663      	mov	r3, ip
200009a6:	58ea      	ldr	r2, [r5, r3]
200009a8:	f3ef 8810 	mrs	r8, PRIMASK
200009ac:	b672      	cpsid	i
200009ae:	6813      	ldr	r3, [r2, #0]
200009b0:	2b00      	cmp	r3, #0
200009b2:	d0fc      	beq.n	200009ae <dvi_scanbuf_main_16bpp+0xa2>
200009b4:	f3bf 8f5f 	dmb	sy
200009b8:	894a      	ldrh	r2, [r1, #10]
200009ba:	890b      	ldrh	r3, [r1, #8]
200009bc:	1a9b      	subs	r3, r3, r2
200009be:	d502      	bpl.n	200009c6 <dvi_scanbuf_main_16bpp+0xba>
200009c0:	89c8      	ldrh	r0, [r1, #14]
200009c2:	3001      	adds	r0, #1
200009c4:	181b      	adds	r3, r3, r0
200009c6:	4660      	mov	r0, ip
200009c8:	5828      	ldr	r0, [r5, r0]
200009ca:	2b00      	cmp	r3, #0
200009cc:	d100      	bne.n	200009d0 <dvi_scanbuf_main_16bpp+0xc4>
200009ce:	e0b3      	b.n	20000b38 <dvi_scanbuf_main_16bpp+0x22c>
200009d0:	4689      	mov	r9, r1
200009d2:	684b      	ldr	r3, [r1, #4]
200009d4:	0091      	lsls	r1, r2, #2
200009d6:	58cc      	ldr	r4, [r1, r3]
200009d8:	464b      	mov	r3, r9
200009da:	9002      	str	r0, [sp, #8]
200009dc:	2100      	movs	r1, #0
200009de:	2000      	movs	r0, #0
200009e0:	9403      	str	r4, [sp, #12]
200009e2:	89db      	ldrh	r3, [r3, #14]
200009e4:	3201      	adds	r2, #1
200009e6:	b292      	uxth	r2, r2
200009e8:	4293      	cmp	r3, r2
200009ea:	4141      	adcs	r1, r0
200009ec:	424b      	negs	r3, r1
200009ee:	401a      	ands	r2, r3
200009f0:	464b      	mov	r3, r9
200009f2:	815a      	strh	r2, [r3, #10]
200009f4:	f3bf 8f5f 	dmb	sy
200009f8:	9b02      	ldr	r3, [sp, #8]
200009fa:	6018      	str	r0, [r3, #0]
200009fc:	f388 8810 	msr	PRIMASK, r8
20000a00:	bf40      	sev
20000a02:	682b      	ldr	r3, [r5, #0]
20000a04:	0021      	movs	r1, r4
20000a06:	691b      	ldr	r3, [r3, #16]
20000a08:	9000      	str	r0, [sp, #0]
20000a0a:	085b      	lsrs	r3, r3, #1
20000a0c:	4698      	mov	r8, r3
20000a0e:	4658      	mov	r0, fp
20000a10:	4642      	mov	r2, r8
20000a12:	2304      	movs	r3, #4
20000a14:	f000 f8ee 	bl	20000bf4 <tmds_encode_data_channel_16bpp>
20000a18:	4643      	mov	r3, r8
20000a1a:	009b      	lsls	r3, r3, #2
20000a1c:	469c      	mov	ip, r3
20000a1e:	0022      	movs	r2, r4
20000a20:	001c      	movs	r4, r3
20000a22:	4462      	add	r2, ip
20000a24:	2305      	movs	r3, #5
20000a26:	0011      	movs	r1, r2
20000a28:	4658      	mov	r0, fp
20000a2a:	4642      	mov	r2, r8
20000a2c:	9300      	str	r3, [sp, #0]
20000a2e:	3305      	adds	r3, #5
20000a30:	9102      	str	r1, [sp, #8]
20000a32:	f000 f8df 	bl	20000bf4 <tmds_encode_data_channel_16bpp>
20000a36:	46a4      	mov	ip, r4
20000a38:	230b      	movs	r3, #11
20000a3a:	9902      	ldr	r1, [sp, #8]
20000a3c:	4642      	mov	r2, r8
20000a3e:	9300      	str	r3, [sp, #0]
20000a40:	4658      	mov	r0, fp
20000a42:	3304      	adds	r3, #4
20000a44:	4461      	add	r1, ip
20000a46:	f000 f8d5 	bl	20000bf4 <tmds_encode_data_channel_16bpp>
20000a4a:	239d      	movs	r3, #157	@ 0x9d
20000a4c:	009b      	lsls	r3, r3, #2
20000a4e:	4698      	mov	r8, r3
20000a50:	4643      	mov	r3, r8
20000a52:	58ea      	ldr	r2, [r5, r3]
20000a54:	f3ef 8010 	mrs	r0, PRIMASK
20000a58:	b672      	cpsid	i
20000a5a:	6813      	ldr	r3, [r2, #0]
20000a5c:	2b00      	cmp	r3, #0
20000a5e:	d0fc      	beq.n	20000a5a <dvi_scanbuf_main_16bpp+0x14e>
20000a60:	f3bf 8f5f 	dmb	sy
20000a64:	8933      	ldrh	r3, [r6, #8]
20000a66:	8972      	ldrh	r2, [r6, #10]
20000a68:	89f1      	ldrh	r1, [r6, #14]
20000a6a:	1a9a      	subs	r2, r3, r2
20000a6c:	d502      	bpl.n	20000a74 <dvi_scanbuf_main_16bpp+0x168>
20000a6e:	1c4c      	adds	r4, r1, #1
20000a70:	46a4      	mov	ip, r4
20000a72:	4462      	add	r2, ip
20000a74:	4644      	mov	r4, r8
20000a76:	592c      	ldr	r4, [r5, r4]
20000a78:	46a4      	mov	ip, r4
20000a7a:	4291      	cmp	r1, r2
20000a7c:	d04c      	beq.n	20000b18 <dvi_scanbuf_main_16bpp+0x20c>
20000a7e:	6872      	ldr	r2, [r6, #4]
20000a80:	9102      	str	r1, [sp, #8]
20000a82:	9903      	ldr	r1, [sp, #12]
20000a84:	009c      	lsls	r4, r3, #2
20000a86:	50a1      	str	r1, [r4, r2]
20000a88:	2400      	movs	r4, #0
20000a8a:	2200      	movs	r2, #0
20000a8c:	9902      	ldr	r1, [sp, #8]
20000a8e:	3301      	adds	r3, #1
20000a90:	b29b      	uxth	r3, r3
20000a92:	4299      	cmp	r1, r3
20000a94:	4162      	adcs	r2, r4
20000a96:	4252      	negs	r2, r2
20000a98:	4013      	ands	r3, r2
20000a9a:	8133      	strh	r3, [r6, #8]
20000a9c:	f3bf 8f5f 	dmb	sy
20000aa0:	4663      	mov	r3, ip
20000aa2:	601c      	str	r4, [r3, #0]
20000aa4:	f380 8810 	msr	PRIMASK, r0
20000aa8:	bf40      	sev
20000aaa:	23a9      	movs	r3, #169	@ 0xa9
20000aac:	009b      	lsls	r3, r3, #2
20000aae:	4698      	mov	r8, r3
20000ab0:	4643      	mov	r3, r8
20000ab2:	58ea      	ldr	r2, [r5, r3]
20000ab4:	f3ef 8110 	mrs	r1, PRIMASK
20000ab8:	b672      	cpsid	i
20000aba:	6813      	ldr	r3, [r2, #0]
20000abc:	2b00      	cmp	r3, #0
20000abe:	d0fc      	beq.n	20000aba <dvi_scanbuf_main_16bpp+0x1ae>
20000ac0:	f3bf 8f5f 	dmb	sy
20000ac4:	8938      	ldrh	r0, [r7, #8]
20000ac6:	897b      	ldrh	r3, [r7, #10]
20000ac8:	89fa      	ldrh	r2, [r7, #14]
20000aca:	1ac3      	subs	r3, r0, r3
20000acc:	d502      	bpl.n	20000ad4 <dvi_scanbuf_main_16bpp+0x1c8>
20000ace:	1c54      	adds	r4, r2, #1
20000ad0:	46a4      	mov	ip, r4
20000ad2:	4463      	add	r3, ip
20000ad4:	4644      	mov	r4, r8
20000ad6:	592c      	ldr	r4, [r5, r4]
20000ad8:	4293      	cmp	r3, r2
20000ada:	d025      	beq.n	20000b28 <dvi_scanbuf_main_16bpp+0x21c>
20000adc:	0003      	movs	r3, r0
20000ade:	0020      	movs	r0, r4
20000ae0:	687c      	ldr	r4, [r7, #4]
20000ae2:	9203      	str	r2, [sp, #12]
20000ae4:	46a4      	mov	ip, r4
20000ae6:	009c      	lsls	r4, r3, #2
20000ae8:	46a0      	mov	r8, r4
20000aea:	9102      	str	r1, [sp, #8]
20000aec:	4664      	mov	r4, ip
20000aee:	4642      	mov	r2, r8
20000af0:	4659      	mov	r1, fp
20000af2:	5111      	str	r1, [r2, r4]
20000af4:	2100      	movs	r1, #0
20000af6:	2400      	movs	r4, #0
20000af8:	9a03      	ldr	r2, [sp, #12]
20000afa:	3301      	adds	r3, #1
20000afc:	b29b      	uxth	r3, r3
20000afe:	429a      	cmp	r2, r3
20000b00:	414c      	adcs	r4, r1
20000b02:	4262      	negs	r2, r4
20000b04:	4013      	ands	r3, r2
20000b06:	813b      	strh	r3, [r7, #8]
20000b08:	f3bf 8f5f 	dmb	sy
20000b0c:	9b02      	ldr	r3, [sp, #8]
20000b0e:	6001      	str	r1, [r0, #0]
20000b10:	f383 8810 	msr	PRIMASK, r3
20000b14:	bf40      	sev
20000b16:	e70e      	b.n	20000936 <dvi_scanbuf_main_16bpp+0x2a>
20000b18:	f3bf 8f5f 	dmb	sy
20000b1c:	2200      	movs	r2, #0
20000b1e:	6022      	str	r2, [r4, #0]
20000b20:	f380 8810 	msr	PRIMASK, r0
20000b24:	bf20      	wfe
20000b26:	e793      	b.n	20000a50 <dvi_scanbuf_main_16bpp+0x144>
20000b28:	f3bf 8f5f 	dmb	sy
20000b2c:	2200      	movs	r2, #0
20000b2e:	6022      	str	r2, [r4, #0]
20000b30:	f381 8810 	msr	PRIMASK, r1
20000b34:	bf20      	wfe
20000b36:	e7bb      	b.n	20000ab0 <dvi_scanbuf_main_16bpp+0x1a4>
20000b38:	f3bf 8f5f 	dmb	sy
20000b3c:	6003      	str	r3, [r0, #0]
20000b3e:	f388 8810 	msr	PRIMASK, r8
20000b42:	bf20      	wfe
20000b44:	e72e      	b.n	200009a4 <dvi_scanbuf_main_16bpp+0x98>
20000b46:	f3bf 8f5f 	dmb	sy
20000b4a:	600b      	str	r3, [r1, #0]
20000b4c:	f382 8810 	msr	PRIMASK, r2
20000b50:	bf20      	wfe
20000b52:	e6f0      	b.n	20000936 <dvi_scanbuf_main_16bpp+0x2a>

20000b54 <dvi_timing_state_advance>:
20000b54:	680b      	ldr	r3, [r1, #0]
20000b56:	790a      	ldrb	r2, [r1, #4]
20000b58:	3301      	adds	r3, #1
20000b5a:	600b      	str	r3, [r1, #0]
20000b5c:	2a00      	cmp	r2, #0
20000b5e:	d103      	bne.n	20000b68 <dvi_timing_state_advance+0x14>
20000b60:	6980      	ldr	r0, [r0, #24]
20000b62:	4283      	cmp	r3, r0
20000b64:	d005      	beq.n	20000b72 <dvi_timing_state_advance+0x1e>
20000b66:	4770      	bx	lr
20000b68:	2a01      	cmp	r2, #1
20000b6a:	d109      	bne.n	20000b80 <dvi_timing_state_advance+0x2c>
20000b6c:	69c0      	ldr	r0, [r0, #28]
20000b6e:	4283      	cmp	r3, r0
20000b70:	d1f9      	bne.n	20000b66 <dvi_timing_state_advance+0x12>
20000b72:	2303      	movs	r3, #3
20000b74:	3201      	adds	r2, #1
20000b76:	4013      	ands	r3, r2
20000b78:	710b      	strb	r3, [r1, #4]
20000b7a:	2300      	movs	r3, #0
20000b7c:	600b      	str	r3, [r1, #0]
20000b7e:	e7f2      	b.n	20000b66 <dvi_timing_state_advance+0x12>
20000b80:	2a02      	cmp	r2, #2
20000b82:	d103      	bne.n	20000b8c <dvi_timing_state_advance+0x38>
20000b84:	6a00      	ldr	r0, [r0, #32]
20000b86:	4283      	cmp	r3, r0
20000b88:	d1ed      	bne.n	20000b66 <dvi_timing_state_advance+0x12>
20000b8a:	e7f2      	b.n	20000b72 <dvi_timing_state_advance+0x1e>
20000b8c:	2a03      	cmp	r2, #3
20000b8e:	d1ea      	bne.n	20000b66 <dvi_timing_state_advance+0x12>
20000b90:	6a40      	ldr	r0, [r0, #36]	@ 0x24
20000b92:	4283      	cmp	r3, r0
20000b94:	d1e7      	bne.n	20000b66 <dvi_timing_state_advance+0x12>
20000b96:	e7ec      	b.n	20000b72 <dvi_timing_state_advance+0x1e>

20000b98 <dvi_update_scanline_data_dma>:
20000b98:	6900      	ldr	r0, [r0, #16]
20000b9a:	6311      	str	r1, [r2, #48]	@ 0x30
20000b9c:	0843      	lsrs	r3, r0, #1
20000b9e:	009b      	lsls	r3, r3, #2
20000ba0:	0080      	lsls	r0, r0, #2
20000ba2:	18cb      	adds	r3, r1, r3
20000ba4:	1809      	adds	r1, r1, r0
20000ba6:	6513      	str	r3, [r2, #80]	@ 0x50
20000ba8:	6711      	str	r1, [r2, #112]	@ 0x70
20000baa:	4770      	bx	lr

20000bac <empty_scanline_tmds>:
20000bac:	fd00 0007 fd00 0007 fa01 000b               ............

20000bb8 <dvi_ctrl_syms>:
20000bb8:	5354 000d acab 0002 5154 0005 aeab 000a     TS......TQ......

20000bc8 <dvi_timing_640x480p_60hz>:
20000bc8:	0000 0000 0010 0000 0060 0000 0030 0000     ........`...0...
20000bd8:	0280 0000 0000 0000 000a 0000 0002 0000     ................
20000be8:	0021 0000 01e0 0000 d860 0003               !.......`...

20000bf4 <tmds_encode_data_channel_16bpp>:
20000bf4:	b5f0      	push	{r4, r5, r6, r7, lr}
20000bf6:	46c6      	mov	lr, r8
20000bf8:	001c      	movs	r4, r3
20000bfa:	b500      	push	{lr}
20000bfc:	4d23      	ldr	r5, [pc, #140]	@ (20000c8c <tmds_encode_data_channel_16bpp+0x98>)
20000bfe:	b088      	sub	sp, #32
20000c00:	0006      	movs	r6, r0
20000c02:	000f      	movs	r7, r1
20000c04:	0028      	movs	r0, r5
20000c06:	a901      	add	r1, sp, #4
20000c08:	4690      	mov	r8, r2
20000c0a:	f000 f851 	bl	20000cb0 <__interp_save_veneer>
20000c0e:	9a0e      	ldr	r2, [sp, #56]	@ 0x38
20000c10:	3207      	adds	r2, #7
20000c12:	1fe3      	subs	r3, r4, #7
20000c14:	d423      	bmi.n	20000c5e <tmds_encode_data_channel_16bpp+0x6a>
20000c16:	21f8      	movs	r1, #248	@ 0xf8
20000c18:	1b12      	subs	r2, r2, r4
20000c1a:	0089      	lsls	r1, r1, #2
20000c1c:	0152      	lsls	r2, r2, #5
20000c1e:	400a      	ands	r2, r1
20000c20:	211f      	movs	r1, #31
20000c22:	400b      	ands	r3, r1
20000c24:	4313      	orrs	r3, r2
20000c26:	0018      	movs	r0, r3
20000c28:	23e0      	movs	r3, #224	@ 0xe0
20000c2a:	015b      	lsls	r3, r3, #5
20000c2c:	4303      	orrs	r3, r0
20000c2e:	62eb      	str	r3, [r5, #44]	@ 0x2c
20000c30:	238e      	movs	r3, #142	@ 0x8e
20000c32:	3409      	adds	r4, #9
20000c34:	4021      	ands	r1, r4
20000c36:	4311      	orrs	r1, r2
20000c38:	025b      	lsls	r3, r3, #9
20000c3a:	430b      	orrs	r3, r1
20000c3c:	632b      	str	r3, [r5, #48]	@ 0x30
20000c3e:	4b14      	ldr	r3, [pc, #80]	@ (20000c90 <tmds_encode_data_channel_16bpp+0x9c>)
20000c40:	4642      	mov	r2, r8
20000c42:	60ab      	str	r3, [r5, #8]
20000c44:	0039      	movs	r1, r7
20000c46:	0030      	movs	r0, r6
20000c48:	60eb      	str	r3, [r5, #12]
20000c4a:	f03f f9d9 	bl	20040000 <tmds_encode_loop_16bpp>
20000c4e:	480f      	ldr	r0, [pc, #60]	@ (20000c8c <tmds_encode_data_channel_16bpp+0x98>)
20000c50:	a901      	add	r1, sp, #4
20000c52:	f000 f83d 	bl	20000cd0 <__interp_restore_veneer>
20000c56:	b008      	add	sp, #32
20000c58:	bc80      	pop	{r7}
20000c5a:	46b8      	mov	r8, r7
20000c5c:	bdf0      	pop	{r4, r5, r6, r7, pc}
20000c5e:	1b14      	subs	r4, r2, r4
20000c60:	22f8      	movs	r2, #248	@ 0xf8
20000c62:	0164      	lsls	r4, r4, #5
20000c64:	0092      	lsls	r2, r2, #2
20000c66:	4014      	ands	r4, r2
20000c68:	22e0      	movs	r2, #224	@ 0xe0
20000c6a:	0152      	lsls	r2, r2, #5
20000c6c:	4322      	orrs	r2, r4
20000c6e:	62ea      	str	r2, [r5, #44]	@ 0x2c
20000c70:	4a08      	ldr	r2, [pc, #32]	@ (20000c94 <tmds_encode_data_channel_16bpp+0xa0>)
20000c72:	0039      	movs	r1, r7
20000c74:	4322      	orrs	r2, r4
20000c76:	632a      	str	r2, [r5, #48]	@ 0x30
20000c78:	4a05      	ldr	r2, [pc, #20]	@ (20000c90 <tmds_encode_data_channel_16bpp+0x9c>)
20000c7a:	0030      	movs	r0, r6
20000c7c:	60aa      	str	r2, [r5, #8]
20000c7e:	425b      	negs	r3, r3
20000c80:	60ea      	str	r2, [r5, #12]
20000c82:	4642      	mov	r2, r8
20000c84:	f03f f9d4 	bl	20040030 <tmds_encode_loop_16bpp_leftshift>
20000c88:	e7e1      	b.n	20000c4e <tmds_encode_data_channel_16bpp+0x5a>
20000c8a:	46c0      	nop			@ (mov r8, r8)
20000c8c:	d0000080 	.word	0xd0000080
20000c90:	20040064 	.word	0x20040064
20000c94:	00011c10 	.word	0x00011c10

20000c98 <__aeabi_idiv0>:
20000c98:	4770      	bx	lr
20000c9a:	46c0      	nop			@ (mov r8, r8)
20000c9c:	0000      	movs	r0, r0
	...

20000ca0 <__dvi_start_veneer>:
20000ca0:	b401      	push	{r0}
20000ca2:	4802      	ldr	r0, [pc, #8]	@ (20000cac <__dvi_start_veneer+0xc>)
20000ca4:	4684      	mov	ip, r0
20000ca6:	bc01      	pop	{r0}
20000ca8:	4760      	bx	ip
20000caa:	bf00      	nop
20000cac:	10002649 	.word	0x10002649

20000cb0 <__interp_save_veneer>:
20000cb0:	b401      	push	{r0}
20000cb2:	4802      	ldr	r0, [pc, #8]	@ (20000cbc <__interp_save_veneer+0xc>)
20000cb4:	4684      	mov	ip, r0
20000cb6:	bc01      	pop	{r0}
20000cb8:	4760      	bx	ip
20000cba:	bf00      	nop
20000cbc:	10002c0d 	.word	0x10002c0d

20000cc0 <__dvi_register_irqs_this_core_veneer>:
20000cc0:	b401      	push	{r0}
20000cc2:	4802      	ldr	r0, [pc, #8]	@ (20000ccc <__dvi_register_irqs_this_core_veneer+0xc>)
20000cc4:	4684      	mov	ip, r0
20000cc6:	bc01      	pop	{r0}
20000cc8:	4760      	bx	ip
20000cca:	bf00      	nop
20000ccc:	100025a5 	.word	0x100025a5

20000cd0 <__interp_restore_veneer>:
20000cd0:	b401      	push	{r0}
20000cd2:	4802      	ldr	r0, [pc, #8]	@ (20000cdc <__interp_restore_veneer+0xc>)
20000cd4:	4684      	mov	ip, r0
20000cd6:	bc01      	pop	{r0}
20000cd8:	4760      	bx	ip
20000cda:	bf00      	nop
20000cdc:	10002c2d 	.word	0x10002c2d

20000ce0 <__best_effort_wfe_or_timeout_veneer>:
20000ce0:	b401      	push	{r0}
20000ce2:	4802      	ldr	r0, [pc, #8]	@ (20000cec <__best_effort_wfe_or_timeout_veneer+0xc>)
20000ce4:	4684      	mov	ip, r0
20000ce6:	bc01      	pop	{r0}
20000ce8:	4760      	bx	ip
20000cea:	bf00      	nop
20000cec:	10001091 	.word	0x10001091

20000cf0 <__panic_veneer>:
20000cf0:	b401      	push	{r0}
20000cf2:	4802      	ldr	r0, [pc, #8]	@ (20000cfc <__panic_veneer+0xc>)
20000cf4:	4684      	mov	ip, r0
20000cf6:	bc01      	pop	{r0}
20000cf8:	4760      	bx	ip
20000cfa:	bf00      	nop
20000cfc:	100019f5 	.word	0x100019f5

20000d00 <buffers>:
20000d00:	20001728 20001728                       (.. (.. 

20000d08 <striped_spin_lock_num>:
20000d08:	00000010                                ....

20000d0c <irq_handler_chain_slots>:
20000d0c:	00000000 	.word	0x00000000
20000d10:	00010000 	.word	0x00010000
	...
20000d1c:	00020000 	.word	0x00020000
	...
20000d28:	00030000 	.word	0x00030000
	...
20000d34:	00ff0000 	.word	0x00ff0000
20000d38:	00000000 	.word	0x00000000

20000d3c <irq_handler_chain_first_slot>:
20000d3c:	b501      	push	{r0, lr}
20000d3e:	6848      	ldr	r0, [r1, #4]
20000d40:	3101      	adds	r1, #1
20000d42:	468e      	mov	lr, r1
20000d44:	4700      	bx	r0

20000d46 <irq_handler_chain_remove_tail>:
20000d46:	4670      	mov	r0, lr
20000d48:	3809      	subs	r0, #9
20000d4a:	4901      	ldr	r1, [pc, #4]	@ (20000d50 <irq_handler_chain_remove_tail+0xa>)
20000d4c:	4788      	blx	r1
20000d4e:	bd01      	pop	{r0, pc}
20000d50:	10000989 	.word	0x10000989

20000d54 <default_alarm_pool>:
20000d54:	20000d6c 00000000 20001308 20001d50     l.. ....... P.. 
	...

20000d6c <default_alarm_pool_heap>:
20000d6c:	20001d60 00000000 00000000 00000010     `.. ............
20000d7c:	00000000                                ....

20000d80 <aeabi_bits_funcs>:
20000d80:	00003350 	.word	0x00003350
20000d84:	0000334c 	.word	0x0000334c
20000d88:	00003354 	.word	0x00003354
20000d8c:	00003352 	.word	0x00003352

20000d90 <aeabi_bits_funcs_end>:
20000d90:	0000534d 	.word	0x0000534d
20000d94:	0000434d 	.word	0x0000434d
20000d98:	00003453 	.word	0x00003453
20000d9c:	00003443 	.word	0x00003443

20000da0 <__malloc_sbrk_base>:
20000da0:	ffffffff                                ....

20000da4 <__malloc_trim_threshold>:
20000da4:	00020000                                ....

20000da8 <__malloc_av_>:
	...
20000db0:	20000da8 20000da8 20000db0 20000db0     ... ... ... ... 
20000dc0:	20000db8 20000db8 20000dc0 20000dc0     ... ... ... ... 
20000dd0:	20000dc8 20000dc8 20000dd0 20000dd0     ... ... ... ... 
20000de0:	20000dd8 20000dd8 20000de0 20000de0     ... ... ... ... 
20000df0:	20000de8 20000de8 20000df0 20000df0     ... ... ... ... 
20000e00:	20000df8 20000df8 20000e00 20000e00     ... ... ... ... 
20000e10:	20000e08 20000e08 20000e10 20000e10     ... ... ... ... 
20000e20:	20000e18 20000e18 20000e20 20000e20     ... ...  ..  .. 
20000e30:	20000e28 20000e28 20000e30 20000e30     (.. (.. 0.. 0.. 
20000e40:	20000e38 20000e38 20000e40 20000e40     8.. 8.. @.. @.. 
20000e50:	20000e48 20000e48 20000e50 20000e50     H.. H.. P.. P.. 
20000e60:	20000e58 20000e58 20000e60 20000e60     X.. X.. `.. `.. 
20000e70:	20000e68 20000e68 20000e70 20000e70     h.. h.. p.. p.. 
20000e80:	20000e78 20000e78 20000e80 20000e80     x.. x.. ... ... 
20000e90:	20000e88 20000e88 20000e90 20000e90     ... ... ... ... 
20000ea0:	20000e98 20000e98 20000ea0 20000ea0     ... ... ... ... 
20000eb0:	20000ea8 20000ea8 20000eb0 20000eb0     ... ... ... ... 
20000ec0:	20000eb8 20000eb8 20000ec0 20000ec0     ... ... ... ... 
20000ed0:	20000ec8 20000ec8 20000ed0 20000ed0     ... ... ... ... 
20000ee0:	20000ed8 20000ed8 20000ee0 20000ee0     ... ... ... ... 
20000ef0:	20000ee8 20000ee8 20000ef0 20000ef0     ... ... ... ... 
20000f00:	20000ef8 20000ef8 20000f00 20000f00     ... ... ... ... 
20000f10:	20000f08 20000f08 20000f10 20000f10     ... ... ... ... 
20000f20:	20000f18 20000f18 20000f20 20000f20     ... ...  ..  .. 
20000f30:	20000f28 20000f28 20000f30 20000f30     (.. (.. 0.. 0.. 
20000f40:	20000f38 20000f38 20000f40 20000f40     8.. 8.. @.. @.. 
20000f50:	20000f48 20000f48 20000f50 20000f50     H.. H.. P.. P.. 
20000f60:	20000f58 20000f58 20000f60 20000f60     X.. X.. `.. `.. 
20000f70:	20000f68 20000f68 20000f70 20000f70     h.. h.. p.. p.. 
20000f80:	20000f78 20000f78 20000f80 20000f80     x.. x.. ... ... 
20000f90:	20000f88 20000f88 20000f90 20000f90     ... ... ... ... 
20000fa0:	20000f98 20000f98 20000fa0 20000fa0     ... ... ... ... 
20000fb0:	20000fa8 20000fa8 20000fb0 20000fb0     ... ... ... ... 
20000fc0:	20000fb8 20000fb8 20000fc0 20000fc0     ... ... ... ... 
20000fd0:	20000fc8 20000fc8 20000fd0 20000fd0     ... ... ... ... 
20000fe0:	20000fd8 20000fd8 20000fe0 20000fe0     ... ... ... ... 
20000ff0:	20000fe8 20000fe8 20000ff0 20000ff0     ... ... ... ... 
20001000:	20000ff8 20000ff8 20001000 20001000     ... ... ... ... 
20001010:	20001008 20001008 20001010 20001010     ... ... ... ... 
20001020:	20001018 20001018 20001020 20001020     ... ...  ..  .. 
20001030:	20001028 20001028 20001030 20001030     (.. (.. 0.. 0.. 
20001040:	20001038 20001038 20001040 20001040     8.. 8.. @.. @.. 
20001050:	20001048 20001048 20001050 20001050     H.. H.. P.. P.. 
20001060:	20001058 20001058 20001060 20001060     X.. X.. `.. `.. 
20001070:	20001068 20001068 20001070 20001070     h.. h.. p.. p.. 
20001080:	20001078 20001078 20001080 20001080     x.. x.. ... ... 
20001090:	20001088 20001088 20001090 20001090     ... ... ... ... 
200010a0:	20001098 20001098 200010a0 200010a0     ... ... ... ... 
200010b0:	200010a8 200010a8 200010b0 200010b0     ... ... ... ... 
200010c0:	200010b8 200010b8 200010c0 200010c0     ... ... ... ... 
200010d0:	200010c8 200010c8 200010d0 200010d0     ... ... ... ... 
200010e0:	200010d8 200010d8 200010e0 200010e0     ... ... ... ... 
200010f0:	200010e8 200010e8 200010f0 200010f0     ... ... ... ... 
20001100:	200010f8 200010f8 20001100 20001100     ... ... ... ... 
20001110:	20001108 20001108 20001110 20001110     ... ... ... ... 
20001120:	20001118 20001118 20001120 20001120     ... ...  ..  .. 
20001130:	20001128 20001128 20001130 20001130     (.. (.. 0.. 0.. 
20001140:	20001138 20001138 20001140 20001140     8.. 8.. @.. @.. 
20001150:	20001148 20001148 20001150 20001150     H.. H.. P.. P.. 
20001160:	20001158 20001158 20001160 20001160     X.. X.. `.. `.. 
20001170:	20001168 20001168 20001170 20001170     h.. h.. p.. p.. 
20001180:	20001178 20001178 20001180 20001180     x.. x.. ... ... 
20001190:	20001188 20001188 20001190 20001190     ... ... ... ... 
200011a0:	20001198 20001198 200011a0 200011a0     ... ... ... ... 

200011b0 <_impure_ptr>:
200011b0:	200011b8 00000000                       ... ....

200011b8 <_impure_data>:
200011b8:	00000000 200015d8 20001640 200016a8     ....... @.. ... 
	...
20001250:	00000001 00000000 abcd330e e66d1234     .........3..4.m.
20001260:	0005deec 0000000b 00000000 00000000     ................
	...

200012d8 <__atexit_recursive_mutex>:
200012d8:	2000159c                                ... 

200012dc <malloc_mutex>:
	...

200012e4 <print_mutex>:
	...

200012ec <__mutex_array_end>:
200012ec:	10002129 	.word	0x10002129
200012f0:	10001a71 	.word	0x10001a71
200012f4:	10001f61 	.word	0x10001f61
200012f8:	10002025 	.word	0x10002025

200012fc <__init_array_start>:
200012fc:	100037b9 	.word	0x100037b9

20001300 <__frame_dummy_init_array_entry>:
20001300:	100002bd                                ....

Disassembly of section .scratch_x:

20040000 <tmds_encode_loop_16bpp>:
20040000:	b5f0      	push	{r4, r5, r6, r7, lr}
20040002:	0092      	lsls	r2, r2, #2
20040004:	440a      	add	r2, r1
20040006:	4694      	mov	ip, r2
20040008:	4a08      	ldr	r2, [pc, #32]	@ (2004002c <tmds_encode_loop_16bpp+0x2c>)
2004000a:	e00b      	b.n	20040024 <tmds_encode_loop_16bpp+0x24>
2004000c:	c850      	ldmia	r0!, {r4, r6}
2004000e:	6014      	str	r4, [r2, #0]
20040010:	6a14      	ldr	r4, [r2, #32]
20040012:	6824      	ldr	r4, [r4, #0]
20040014:	6a55      	ldr	r5, [r2, #36]	@ 0x24
20040016:	682d      	ldr	r5, [r5, #0]
20040018:	6016      	str	r6, [r2, #0]
2004001a:	6a16      	ldr	r6, [r2, #32]
2004001c:	6836      	ldr	r6, [r6, #0]
2004001e:	6a57      	ldr	r7, [r2, #36]	@ 0x24
20040020:	683f      	ldr	r7, [r7, #0]
20040022:	c1f0      	stmia	r1!, {r4, r5, r6, r7}
20040024:	4561      	cmp	r1, ip
20040026:	d1f1      	bne.n	2004000c <tmds_encode_loop_16bpp+0xc>
20040028:	bdf0      	pop	{r4, r5, r6, r7, pc}
2004002a:	0000      	.short	0x0000
2004002c:	d0000080 	.word	0xd0000080

20040030 <tmds_encode_loop_16bpp_leftshift>:
20040030:	b5f0      	push	{r4, r5, r6, r7, lr}
20040032:	0092      	lsls	r2, r2, #2
20040034:	440a      	add	r2, r1
20040036:	4694      	mov	ip, r2
20040038:	4a09      	ldr	r2, [pc, #36]	@ (20040060 <tmds_encode_loop_16bpp_leftshift+0x30>)
2004003a:	e00d      	b.n	20040058 <tmds_encode_loop_16bpp_leftshift+0x28>
2004003c:	c850      	ldmia	r0!, {r4, r6}
2004003e:	409c      	lsls	r4, r3
20040040:	6014      	str	r4, [r2, #0]
20040042:	6a14      	ldr	r4, [r2, #32]
20040044:	6824      	ldr	r4, [r4, #0]
20040046:	6a55      	ldr	r5, [r2, #36]	@ 0x24
20040048:	682d      	ldr	r5, [r5, #0]
2004004a:	409e      	lsls	r6, r3
2004004c:	6016      	str	r6, [r2, #0]
2004004e:	6a16      	ldr	r6, [r2, #32]
20040050:	6836      	ldr	r6, [r6, #0]
20040052:	6a57      	ldr	r7, [r2, #36]	@ 0x24
20040054:	683f      	ldr	r7, [r7, #0]
20040056:	c1f0      	stmia	r1!, {r4, r5, r6, r7}
20040058:	4561      	cmp	r1, ip
2004005a:	d1ef      	bne.n	2004003c <tmds_encode_loop_16bpp_leftshift+0xc>
2004005c:	bdf0      	pop	{r4, r5, r6, r7, pc}
2004005e:	0000      	.short	0x0000
20040060:	d0000080 	.word	0xd0000080

20040064 <tmds_table>:
20040064:	0007fd00 00040dfc 00041df8 0007ed04     ................
20040074:	00043df0 0007cd0c 0007dd08 00042df4     .=...........-..
20040084:	00047de0 00078d1c 00079d18 00046de4     .}...........m..
20040094:	0007bd10 00044dec 00045de8 000afa41     .....M...]..A...
200400a4:	0004fdc0 00070d3c 00071d38 0004edc4     ....<...8.......
200400b4:	00073d30 0004cdcc 0004ddc8 000a7a61     0=..........az..
200400c4:	00077d20 00048ddc 00049dd8 000a3a71      }..........q:..
200400d4:	0004bdd0 000a1a79 000a0a7d 0009fa81     ....y...}.......
200400e4:	0005fd80 00060d7c 00061d78 0005ed84     ....|...x.......
200400f4:	00063d70 0005cd8c 0005dd88 000b7a21     p=..........!z..
20040104:	00067d60 00058d9c 00059d98 000b3a31     `}..........1:..
20040114:	0005bd90 000b1a39 000b0a3d 0008fac1     ....9...=.......
20040124:	0006fd40 00050dbc 00051db8 000bba11     @...............
20040134:	00053db0 000b9a19 000b8a1d 00087ae1     .=...........z..
20040144:	00057da0 000bda09 000bca0d 00083af1     .}...........:..
20040154:	000bea05 00081af9 00080afd 000bfa01     ................
